(dp0
V\u56fd\u5965
p1
L0L
sV\u9a6c\u6653\u65ed
p2
L1L
sV\u8f6c\u597d
p3
L2L
sV\u4e3b\u573a\u4f18\u52bf
p4
L3L
sV\u963f\u5c14\u52a0
p5
L4L
sV\u903c\u62a2
p6
L5L
sV\u5931\u7403
p7
L6L
sV\u8fd0\u52a8\u961f
p8
L7L
sV\u8f6e\u7a7a
p9
L8L
sV\u5510\u5a1c
p10
L9L
sV\u5973\u4e52
p11
L10L
sV\u7f8e\u56fd\u961f
p12
L11L
sV\u4f53\u80b2\u8baf
p13
L12L
sV\u5916\u5361
p14
L13L
sV\u961f\u670d
p15
L14L
sV\u53c2\u900f
p16
L15L
sV\u91d1\u724c\u5f97\u4e3b
p17
L16L
sV\u4e5d\u5bab\u683c
p18
L17L
sV\u8ffd\u6714
p19
L18L
sV\u8d1d\u65af
p20
L19L
sV\u65af\u6cf0\u683c
p21
L20L
sV\u8fb9\u540e\u536b
p22
L21L
sV\u540e\u536b\u7ebf
p23
L22L
sV\u524d\u8170
p24
L23L
sV\u53f3\u540e\u536b
p25
L24L
sV\u6361\u7403
p26
L25L
sV\u6345\u5c04
p27
L26L
sV\u56fd\u7c73
p28
L27L
sV\u8db3\u8054
p29
L28L
sV\u54c8\u66fc
p30
L29L
sV\u7a46\u91cc\u5c3c\u5965
p31
L30L
sV\u9ec4\u5065\u7fd4
p32
L31L
sV\u674e\u627f\u9e4f
p33
L32L
sV\u5e06\u5e03\u978b
p34
L33L
sV\u5e0c\u814a\u961f
p35
L34L
sV\u6734\u667a\u661f
p36
L35L
sV\u8d1d\u80af\u9c8d\u5c14
p37
L36L
sV\u5e26\u7403
p38
L37L
sV\u7b2c\u4e00\u5206\u949f
p39
L38L
sV\u5904\u5b50\u79c0
p40
L39L
sV\u4f4e\u5c04
p41
L40L
sV\u65bd\u5c04
p42
L41L
sV\u963f\u9686\u7d22
p43
L42L
sV\u63a7\u7403
p44
L43L
sV\u6885\u5185\u514b
p45
L44L
sV\u9a6c\u5c14\u7ef4
p46
L45L
sV\u963f\u5185\u5c14\u5361
p47
L46L
sV\u66f4\u8863\u5ba4
p48
L47L
sV\u4f53\u575b\u5468\u62a5
p49
L48L
sV\u751f\u6b7b\u6218
p50
L49L
sV\u51a0\u519b\u676f\u8d5b
p51
L50L
sV\u4f53\u80b2\u62a5
p52
L51L
sV\u6b27\u6d32\u676f
p53
L52L
sV\u63ed\u5e55\u6218
p54
L53L
sV\u82f1\u683c\u5170\u961f
p55
L54L
sV\u90dc\u6797
p56
L55L
sV\u5170\u5e15\u5fb7
p57
L56L
sV\u9519\u5224
p58
L57L
sV\u8033\u9ea6
p59
L58L
sV\u4e3b\u88c1
p60
L59L
sV\u516b\u5f3a\u8d5b
p61
L60L
sV\u4e4c\u62c9\u572d\u961f
p62
L61L
sV\u8377\u5170\u961f
p63
L62L
sV\u585e\u5df4\u65af\u8482\u5b89
p64
L63L
sV\u529b\u633a
p65
L64L
sV\u5965\u7ec4\u59d4
p66
L65L
sV\u4e89\u51a0
p67
L66L
sV\u8db3\u7403\u57ce
p68
L67L
sV\u4e16\u754c\u8db3\u575b
p69
L68L
sV\u6b27\u9526\u8d5b
p70
L69L
sV\u7206\u51b7
p71
L70L
sV\u963f\u68ee\u7eb3\u961f
p72
L71L
sV\u4f0a\u6d85\u65af\u5854
p73
L72L
sV\u5fb7\u56fd\u961f
p74
L73L
sV\u4e0a\u573a\u6bd4\u8d5b
p75
L74L
sV\u9f50\u8fbe\u5185
p76
L75L
sV\u7f57\u672c
p77
L76L
sV\u5168\u653b\u5168\u5b88
p78
L77L
sV\u7f57\u7eb3\u5c14\u8fea
p79
L78L
sV\u4e09\u56db\u540d
p80
L79L
sV\u5c0f\u8d1f
p81
L80L
sV\u5973\u6a21\u7279
p82
L81L
sV\u6c99\u5c14\u514b
p83
L82L
sV\u8f6c\u4f1a\u8d39
p84
L83L
sV\u8fed\u6208
p85
L84L
sV\u4e00\u5c55\u8eab\u624b
p86
L85L
sV\u4e2d\u56fd\u56fd\u5bb6\u961f
p87
L86L
sV\u4e0a\u4e0b\u534a\u573a
p88
L87L
sV\u4e9a\u6d32\u676f
p89
L88L
sV\u6c34\u7acb\u65b9
p90
L89L
sV\u5965\u8fd0\u91d1\u724c
p91
L90L
sV\u970d\u9707\u9706
p92
L91L
sV\u5973\u4f18
p93
L92L
sV\u8428\u7a46\u57c3\u5c14
p94
L93L
sV\u8d1d\u9686
p95
L94L
sV\u7f57\u6885\u7f57
p96
L95L
sV\u7279\u7ef4\u65af
p97
L96L
sV\u7c73\u5229\u6258
p98
L97L
sV\u4e3b\u529b\u9635\u5bb9
p99
L98L
sV\u5e03\u62c9\u5fb7\u5229
p100
L99L
sV\u5f17\u6717\u54e5
p101
L100L
sV\u8001\u961f\u5458
p102
L101L
sV\u7edd\u6740
p103
L102L
sV\u963f\u6839\u5ef7\u961f
p104
L103L
sV\u5f55\u8c61
p105
L104L
sV\u7f51\u7a9d
p106
L105L
sV\u5fb7\u7f57\u5df4
p107
L106L
sV\u6012\u5c04
p108
L107L
sV\u5f31\u961f
p109
L108L
sV\u56fd\u9645\u8db3\u575b
p110
L109L
sV\u540a\u5c04
p111
L110L
sV\u5c0f\u7981\u533a
p112
L111L
sV\u9876\u5165
p113
L112L
sV\u4e0b\u534a\u65f6
p114
L113L
sV\u6574\u652f
p115
L114L
sV\u65b0\u4e1d\u8def
p116
L115L
sV\u7403\u98ce
p117
L116L
sV\u961f\u533b
p118
L117L
sV\u8bad\u7ec3\u8bfe
p119
L118L
sV\u52a0\u7ec3
p120
L119L
sV\u6ca1\u8f93
p121
L120L
sV\u961f\u5185
p122
L121L
sV\u4e2d\u524d\u573a
p123
L122L
sV\u8461\u8404\u7259\u961f
p124
L123L
sV\u5ba2\u961f
p125
L124L
sV\u6069\u4ec7
p126
L125L
sV\u56db\u7403
p127
L126L
sV\u4e3b\u7f5a
p128
L127L
sV\u6dd8\u6c70\u8d5b
p129
L128L
sV\u4f20\u5947\u4e00\u751f
p130
L129L
sV\u653b\u51fb\u624b
p131
L130L
sV\u6211\u8981
p132
L131L
sV\u5df4\u897f\u961f
p133
L132L
sV\u7ec8\u573a\u54e8
p134
L133L
sV\u7f8e\u6d32\u676f
p135
L134L
sV\u591a\u7eb3
p136
L135L
sV\u4e00\u82f1\u91cc
p137
L136L
sV\u7535\u89c6\u8bb0\u8005
p138
L137L
sV\u65e0\u8d44\u683c
p139
L138L
sV\u9ad8\u7968\u5f53\u9009
p140
L139L
sV\u8bb8\u4e01\u8302
p141
L140L
sV\u9009\u5e05
p142
L141L
sV\u65e5\u53ca
p143
L142L
sV\u4e2d\u7532
p144
L143L
sV\u8303\u5fd7\u6bc5
p145
L144L
sV\u5317\u4eac\u7406\u5de5
p146
L145L
sV\u4e5d\u65b9
p147
L146L
sV\u5347\u73ed\u9a6c
p148
L147L
sV\u91cd\u5e86\u529b\u5e06
p149
L148L
sV\u6210\u90fd\u4e94\u725b
p150
L149L
sV\u4ea4\u767d\u5377
p151
L150L
sV\u77ed\u4f20
p152
L151L
sV\u5434\u5e86
p153
L152L
sV\u4ece\u6211\u505a\u8d77
p154
L153L
sV\u5f90\u6839\u5b9d
p155
L154L
sV\u4fdd\u7ea7
p156
L155L
sV\u6c5f\u82cf\u961f
p157
L156L
sV\u5c0f\u7403\u5458
p158
L157L
sV\u5de6\u540e\u536b
p159
L158L
sV\u5317\u7406\u5de5
p160
L159L
sV\u5ef6\u8fb9\u961f
p161
L160L
sV\u94f2\u5012
p162
L161L
sV\u8fdc\u89d2
p163
L162L
sV\u4e0a\u534a\u65f6
p164
L163L
sV\u6653\u9732
p165
L164L
sV\u8e22\u4e0b\u6765
p166
L165L
sV\u5f3a\u5f3a\u5408\u4f5c
p167
L166L
sV\u5f39\u56de
p168
L167L
sV\u5929\u6d25\u961f
p169
L168L
sV\u6797\u5cf0
p170
L169L
sV\u5927\u5b66\u961f
p171
L170L
sV\u7533\u601d
p172
L171L
sV\u516b\u4e00\u961f
p173
L172L
sV\u6731\u5e7f\u6caa
p174
L173L
sV\u51b3\u5fc3\u5f88\u5927
p175
L174L
sV\u8c03\u6574\u8ba1\u5212
p176
L175L
sV\u8fbd\u8db3
p177
L176L
sV\u7a7a\u524d\u56e2\u7ed3
p178
L177L
sV\u7559\u6d0b
p179
L178L
sV\u8087\u4fca\u54f2
p180
L179L
sV\u51af\u6f47\u9706
p181
L180L
sV\u4e94\u4e94\u5f00
p182
L181L
sV\u5f27\u7ebf\u7403
p183
L182L
sV\u8fdd\u7eaa\u884c\u4e3a
p184
L183L
sV\u5f20\u66d9\u5149
p185
L184L
sV\u52b3\u52a8\u548c\u793e\u4f1a\u4fdd\u969c\u90e8
p186
L185L
sV\u811a\u4f24
p187
L186L
sV\u51b2\u8d85
p188
L187L
sV\u4e59\u7ea7\u961f
p189
L188L
sV\u738b\u4e91\u9f99
p190
L189L
sV\u6c88\u7965\u798f
p191
L190L
sV\u535a\u5c14\u987f
p192
L191L
sV\u66fc\u8054\u961f
p193
L192L
sV\u6e56\u5317\u961f
p194
L193L
sV\u6bd4\u8d5b\u670d
p195
L194L
sV\u5927\u5c0f\u7403
p196
L195L
sV\u8fdb\u7403\u6570
p197
L196L
sV\u9996\u56de\u5408
p198
L197L
sV\u6536\u6389
p199
L198L
sV\u8865\u65f6
p200
L199L
sV\u4f53\u80b2\u9053\u5fb7
p201
L200L
sV\u795e\u79d8\u7535\u8bdd
p202
L201L
sV\u540e\u534a\u7a0b
p203
L202L
sV\u6446\u6b63\u4f4d\u7f6e
p204
L203L
sV\u4f4e\u59ff\u6001
p205
L204L
sV\u94c1\u897f\u533a
p206
L205L
sV\u4f24\u505c\u8865\u65f6
p207
L206L
sV\u6536\u5b98\u6218
p208
L207L
sV\u7559\u961f
p209
L208L
sV\u7403\u5e02
p210
L209L
sV\u540d\u5bbf
p211
L210L
sV\u9648\u771f
p212
L211L
sV\u5317\u4eac\u961f
p213
L212L
sV\u603b\u6bd4\u5206
p214
L213L
sV\u4e2d\u6027\u5316
p215
L214L
sV\u5f31\u65c5
p216
L215L
sV\u8db3\u534f\u676f
p217
L216L
sV\u6444\u5236\u7ec4
p218
L217L
sV\u8521\u665f
p219
L218L
sV\u592a\u5047
p220
L219L
sV\u51b7\u5904\u7406
p221
L220L
sV\u7ade\u8058
p222
L221L
sV\u675c\u658c
p223
L222L
sV\u4e2d\u8d85
p224
L223L
sV\u534f\u67e5
p225
L224L
sV\u5de6\u6587\u6e05
p226
L225L
sV\u6d89\u5047
p227
L226L
sV\u6773\u65e0\u97f3\u8baf
p228
L227L
sV\u4e3b\u529b\u7403\u5458
p229
L228L
sV\u6253\u5e73
p230
L229L
sV\u73a9\u6b7b
p231
L230L
sV\u66ff\u8865\u961f\u5458
p232
L231L
sV\u6b20\u94b1
p233
L232L
sV\u4e70\u4e00\u9001\u4e00
p234
L233L
sV\u5927\u8fde\u4eba
p235
L234L
sV\u8db3\u7403\u5b66\u6821
p236
L235L
sV\u808c\u8089\u7537
p237
L236L
sV\u6559\u5b66\u8d5b
p238
L237L
sV\u9996\u7c92
p239
L238L
sV\u8003\u5bdf\u961f\u5458
p240
L239L
sV\u7eff\u8335
p241
L240L
sV\u6625\u8282\u5047\u671f
p242
L241L
sV\u5149\u8c37
p243
L242L
sV\u66fe\u6548\u529b
p244
L243L
sV\u4e00\u6708\u5e95
p245
L244L
sV\u4eba\u683c\u9b45\u529b
p246
L245L
sV\u4e13\u9898\u7247
p247
L246L
sV\u674e\u5065\u534e
p248
L247L
sV\u5e7f\u5dde\u8bdd
p249
L248L
sV\u62c9\u7c73\u96f7\u65af
p250
L249L
sV\u80fd\u4e0a\u573a
p251
L250L
sV\u7533\u82b1
p252
L251L
sV\u516b\u559c
p253
L252L
sV\u66ff\u8865\u5e2d
p254
L253L
sV\u90ed\u5b50
p255
L254L
sV\u674e\u7ae0\u6d19
p256
L255L
sV\u4e0b\u8bfe\u540e
p257
L256L
sV\u5e7f\u5dde\u961f
p258
L257L
sV\u90d1\u667a
p259
L258L
sV\u6052\u5927
p260
L259L
sV\u4f1a\u4ee4
p261
L260L
sV\u5b8b\u6d9b
p262
L261L
sV\u5f15\u63f4
p263
L262L
sV\u4e0b\u5e95\u4f20\u4e2d
p264
L263L
sV\u50bb\u74dc\u76f8\u673a
p265
L264L
sV\u949f\u6b23\u6850
p266
L265L
sV\u5bb9\u7956\u513f
p267
L266L
sV\u4e9a\u6d32\u676f\u8d5b
p268
L267L
sV\u4e1a\u4f59\u961f
p269
L268L
sV\u66f9\u9633
p270
L269L
sV\u516d\u8f6e
p271
L270L
sV\u5185\u5916\u63f4
p272
L271L
sV\u5218\u52c7
p273
L272L
sV\u5112\u5546
p274
L273L
sV\u4e09\u8fde\u80dc
p275
L274L
sV\u5c04\u624b\u699c
p276
L275L
sV\u674e\u94a2
p277
L276L
sV\u7f5a\u51fa
p278
L277L
sV\u65e5\u672c\u961f
p279
L278L
sV\u7ade\u6280\u961f
p280
L279L
sV\u56fd\u9752
p281
L280L
sV\u4e5d\u573a
p282
L281L
sV\u9709\u8fd0
p283
L282L
sV\u56db\u5ddd\u5168\u5174
p284
L283L
sV\u6210\u90fd\u961f
p285
L284L
sV\u90b5\u4f73\u4e00
p286
L285L
sV\u97e6\u8fea
p287
L286L
sV\u7f62\u8d5b
p288
L287L
sV\u7f6e\u9876
p289
L288L
sV\u65af\u5a01\u7279
p290
L289L
sV\u8ba8\u85aa
p291
L290L
sV\u968f\u65f6\u6b22\u8fce
p292
L291L
sV\u6001\u5ea6\u5f3a\u786c
p293
L292L
sV\u4e1c\u8fdb\u961f
p294
L293L
sV\u65e5\u665a
p295
L294L
sV\u9752\u5e74\u961f
p296
L295L
sV\u514b\u52b3\u5947
p297
L296L
sV\u59da\u590f
p298
L297L
sV\u597d\u805a\u597d\u6563
p299
L298L
sV\u89e3\u7ea6
p300
L299L
sV\u5b8f\u57fa
p301
L300L
sV\u5404\u8d5b\u533a
p302
L301L
sV\u7f5a\u4e0b\u573a
p303
L302L
sV\u5047\u65b0\u95fb
p304
L303L
sV\u4fdd\u6301\u8005
p305
L304L
sV\u516d\u573a
p306
L305L
sV\u7ea6\u7ff0\u68ee
p307
L306L
sV\u80a2\u4f53\u51b2\u7a81
p308
L307L
sV\u6362\u80be
p309
L308L
sV\u98de\u6765\u6a2a\u7978
p310
L309L
sV\u5b59\u7ee7\u6d77
p311
L310L
sV\u505c\u8d5b
p312
L311L
sV\u5584\u540e\u5904\u7406
p313
L312L
sV\u8fb9\u536b
p314
L313L
sV\u83b1\u6602\u7eb3\u591a
p315
L314L
sV\u62fc\u52b2
p316
L315L
sV\u4f20\u63a5\u7403
p317
L316L
sV\u5e7f\u4e1c\u961f
p318
L317L
sV\u91d1\u9774\u5956
p319
L318L
sV\u4e00\u4e24\u573a
p320
L319L
sV\u4ebf\u97e9\u5143
p321
L320L
sV\u5927\u8fde\u5b9e\u5fb7
p322
L321L
sV\u5b9e\u5fb7
p323
L322L
sV\u6768\u4e91
p324
L323L
sV\u6768\u6668
p325
L324L
sV\u53d7\u4f17\u9762
p326
L325L
sV\u4e24\u5343\u591a\u4e07
p327
L326L
sV\u78e8\u5200\u4e0d\u8bef\u780d\u67f4\u5de5
p328
L327L
sV\u9632\u5b88\u53cd\u51fb
p329
L328L
sV\u975e\u5356\u54c1
p330
L329L
sV\u90dd\u6d77\u4e1c
p331
L330L
sV\u4e59\u7ec4
p332
L331L
sV\u90ed\u8f89
p333
L332L
sV\u4e24\u4e09\u540d
p334
L333L
sV\u5b59\u6c38\u519b
p335
L334L
sV\u6b66\u6c49\u961f
p336
L335L
sV\u5927\u53d8\u8138
p337
L336L
sV\u5012\u4e09\u89d2
p338
L337L
sV\u8db3\u7403\u8054\u8d5b
p339
L338L
sV\u5012\u91d1\u5b57\u5854
p340
L339L
sV\u5347\u964d\u7ea7
p341
L340L
sV\u5b98\u65b9\u8bba\u575b
p342
L341L
sV\u7248\u4e3b
p343
L342L
sV\u4e94\u91cc\u6cb3
p344
L343L
sV\u5c04\u624b\u5ea7
p345
L344L
sV\u5fb7\u7532
p346
L345L
sV\u97e9\u8bed
p347
L346L
sV\u674e\u6811\u658c
p348
L347L
sV\u603b\u7ed3\u4f1a
p349
L348L
sV\u5f90\u9633
p350
L349L
sV\u94f2\u7403
p351
L350L
sV\u79d1\u7ef4\u5947
p352
L351L
sV\u8bad\u7ec3\u573a\u5730
p353
L352L
sV\u5927\u8fd0\u4f1a
p354
L353L
sV\u5fd7\u6d77
p355
L354L
sV\u91cc\u5361\u591a
p356
L355L
sV\u8fdf\u5c1a\u658c
p357
L356L
sV\u8033\u9489
p358
L357L
sV\u5206\u533a\u8d5b
p359
L358L
sV\u4f53\u80b2\u9891\u9053
p360
L359L
sV\u5957\u7968
p361
L360L
sV\u53d1\u6325\u4f59\u70ed
p362
L361L
sV\u76d8\u5e26
p363
L362L
sV\u8170\u4f24
p364
L363L
sV\u4e24\u8fde\u80dc
p365
L364L
sV\u6218\u6210
p366
L365L
sV\u6167\u773c\u8bc6
p367
L366L
sV\u5c3e\u6b3e
p368
L367L
sV\u672a\u4ed8
p369
L368L
sV\u901a\u6e90
p370
L369L
sV\u7ecf\u6d4e\u7ea0\u7eb7
p371
L370L
sV\u4e94\u8f6e
p372
L371L
sV\u672c\u4e13\u9898
p373
L372L
sV\u800d\u5927\u724c
p374
L373L
sV\u8ba2\u673a\u7968
p375
L374L
sV\u4e24\u8fde\u8d25
p376
L375L
sV\u5df4\u6258\u592b
p377
L376L
sV\u7f3a\u9635
p378
L377L
sV\u5403\u5c3d\u82e6\u5934
p379
L378L
sV\u6e58\u6d9b
p380
L379L
sV\u4e0b\u82e6\u529f
p381
L380L
sV\u8fbe\u91cc\u5965
p382
L381L
sV\u72ec\u5b64\u6c42\u8d25
p383
L382L
sV\u5e05\u4f4d
p384
L383L
sV\u6280\u4e0d\u5982\u4eba
p385
L384L
sV\u674e\u603b
p386
L385L
sV\u5c71\u4e1c\u961f
p387
L386L
sV\u8db3\u6821
p388
L387L
sV\u5377\u94fa\u76d6\u8d70\u4eba
p389
L388L
sV\u4e0a\u6d77\u961f
p390
L389L
sV\u7532\u7ea7\u8054\u8d5b
p391
L390L
sV\u7f5a\u94b1
p392
L391L
sV\u5361\u5c14\u987f
p393
L392L
sV\u5df4\u6069\u65af
p394
L393L
sV\u5408\u7ec3
p395
L394L
sV\u51ef\u5854
p396
L395L
sV\u963f\u5fb7\u91cc\u4e9a
p397
L396L
sV\u56fd\u9645\u7c73\u5170
p398
L397L
sV\u9a6c\u514b\u897f
p399
L398L
sV\u6b20\u503a\u8fd8\u94b1
p400
L399L
sV\u8d75\u5b87
p401
L400L
sV\u7ef7\u7d27\u795e\u7ecf
p402
L401L
sV\u4e94\u573a
p403
L402L
sV\u4e0d\u5e78\u9047\u96be
p404
L403L
sV\u79ef\u5206\u699c
p405
L404L
sV\u62fc\u640f\u7cbe\u795e
p406
L405L
sV\u77e5\u8bc6\u8bb2\u5ea7
p407
L406L
sV\u957f\u4f20
p408
L407L
sV\u7a81\u65bd
p409
L408L
sV\u7fa4\u9a6c\u53bf
p410
L409L
sV\u52d2\u8292
p411
L410L
sV\u518d\u8d62
p412
L411L
sV\u4e8e\u963f\u5c14
p413
L412L
sV\u65ed\u4e1c
p414
L413L
sV\u89d2\u7403
p415
L414L
sV\u6885\u5f00\u4e8c\u5ea6
p416
L415L
sV\u5eb7\u5eb7
p417
L416L
sV\u83f2\u514b
p418
L417L
sV\u8fd0\u52a8\u88c5
p419
L418L
sV\u5b59\u96ef
p420
L419L
sV\u5e8f\u5217\u53f7
p421
L420L
sV\u5927\u5668\u665a\u6210
p422
L421L
sV\u963f\u91cc\u6c49
p423
L422L
sV\u534a\u7a0b
p424
L423L
sV\u5730\u53bb
p425
L424L
sV\u6fb3\u5927\u5229\u4e9a\u961f
p426
L425L
sV\u9632\u53cd
p427
L426L
sV\u5341\u51e0\u5206
p428
L427L
sV\u5361\u6885\u9686
p429
L428L
sV\u8fdc\u6295
p430
L429L
sV\u9a87\u5ba2
p431
L430L
sV\u6574\u573a
p432
L431L
sV\u5e03\u83b1\u6069\u7279
p433
L432L
sV\u9b45\u529b\u56db\u5c04
p434
L433L
sV\u5e05\u5c0f\u4f19
p435
L434L
sV\u8bfa\u91cc\u65af
p436
L435L
sV\u6768\u6f9c
p437
L436L
sV\u585e\u8428\u5c14
p438
L437L
sV\u8fdb\u516b\u5f3a
p439
L438L
sV\u4e9a\u5386\u514b
p440
L439L
sV\u7c73\u5170\u961f
p441
L440L
sV\u6027\u611f\u5973
p442
L441L
sV\u7ea2\u9b54
p443
L442L
sV\u8303\u535a\u6885
p444
L443L
sV\u4e4c\u9f99\u7403
p445
L444L
sV\u4f38\u811a
p446
L445L
sV\u516b\u5f3a
p447
L446L
sV\u683c\u6597\u6e38\u620f
p448
L447L
sV\u6089\u5c3c\u5965\u8fd0\u4f1a
p449
L448L
sV\u4ed6\u79f0
p450
L449L
sV\u6709\u5927
p451
L450L
sV\u7f57\u6bd4
p452
L451L
sV\u610f\u5927\u5229\u961f
p453
L452L
sV\u73af\u7403\u7f51
p454
L453L
sV\u65b0\u897f\u5170\u961f
p455
L454L
sV\u57c3\u5f17\u987f
p456
L455L
sV\u5c0f\u4e2a
p457
L456L
sV\u8c22\u7433
p458
L457L
sV\u529b\u91cf\u578b
p459
L458L
sV\u706b\u70ac\u624b
p460
L459L
sV\u5723\u706b
p461
L460L
sV\u7eff\u8335\u573a
p462
L461L
sV\u8bad\u7ec3\u91cf
p463
L462L
sV\u5c0f\u7ec4\u7b2c\u4e00
p464
L463L
sV\u739b\u5854
p465
L464L
sV\u738b\u4fca\u751f
p466
L465L
sV\u8bad\u7ec3\u5c40
p467
L466L
sV\u5de5\u4f5c\u96be\u5ea6
p468
L467L
sV\u6b8b\u5965\u4f1a
p469
L468L
sV\u4eba\u4e8b\u53f8
p470
L469L
sV\u5f20\u5a1c
p471
L470L
sV\u5218\u9e4f
p472
L471L
sV\u5341\u5f3a\u8d5b
p473
L472L
sV\u53cb\u8c0a\u8d5b
p474
L473L
sV\u4f50\u4f50\u6728
p475
L474L
sV\u7ade\u8d5b\u5956
p476
L475L
sV\u6bbf\u519b
p477
L476L
sV\u5168\u76d8\u8003\u8651
p478
L477L
sV\u4f53\u80b2\u7cbe\u795e
p479
L478L
sV\u6f2b\u9a82
p480
L479L
sV\u5f20\u946b
p481
L480L
sV\u60c5\u8272
p482
L481L
sV\u5546\u6f14
p483
L482L
sV\u674e\u6e58
p484
L483L
sV\u5973\u8d85
p485
L484L
sV\u5f20\u5409\u9f99
p486
L485L
sV\u4f53\u80b2\u603b\u5c40
p487
L486L
sV\u674e\u6d01
p488
L487L
sV\u65b0\u8001\u4ea4\u66ff
p489
L488L
sV\u4e2d\u56fd\u7537\u8db3
p490
L489L
sV\u5f20\u8d8a
p491
L490L
sV\u73b2\u73b2
p492
L491L
sV\u4e07\u97e9\u5143
p493
L492L
sV\u7ea2\u5c71\u53e3
p494
L493L
sV\u6709\u4f55
p495
L494L
sV\u65f6\u8bb8
p496
L495L
sV\u4e16\u754c\u8db3\u7403
p497
L496L
sV\u6bb5\u4e16\u6770
p498
L497L
sV\u51a0\u519b\u961f
p499
L498L
sV\u6821\u9645
p500
L499L
sV\u4e00\u91d1
p501
L500L
sV\u4e2d\u5b66\u9636\u6bb5
p502
L501L
sV\u5f88\u723d
p503
L502L
sV\u4e07\u81f3
p504
L503L
sV\u5434\u5c0f\u8389
p505
L504L
sV\u5317\u4f53\u5927
p506
L505L
sV\u950b\u7ebf
p507
L506L
sV\u97e9\u7aef
p508
L507L
sV\u4e8e\u9759
p509
L508L
sV\u76f4\u4f20
p510
L509L
sV\u6cd5\u7532
p511
L510L
sV\u559c\u6765\u767b
p512
L511L
sV\u4f53\u534f
p513
L512L
sV\u97e9\u6218
p514
L513L
sV\u79cb\u88c5
p515
L514L
sV\u540d\u724c\u670d\u88c5
p516
L515L
sV\u91d1\u5a01
p517
L516L
sV\u9006\u5e02
p518
L517L
sV\u83c1\u83c1
p519
L518L
sV\u65b0\u4e00\u671f
p520
L519L
sV\u84dd\u9886\u5de5\u4eba
p521
L520L
sV\u89c2\u8d5b
p522
L521L
sV\u4e3e\u529e\u5730
p523
L522L
sV\u4f73\u80fd
p524
L523L
sV\u6052\u6e90\u7965
p525
L524L
sV\u671d\u9c9c\u961f
p526
L525L
sV\u8fdb\u5165\u72b6\u6001
p527
L526L
sV\u52b2\u5c04
p528
L527L
sV\u6cd5\u8d6b\u5fb7
p529
L528L
sV\u4e1c\u4e9a\u533a
p530
L529L
sV\u4e0d\u7834\u4e0d\u7acb
p531
L530L
sV\u859b\u7acb
p532
L531L
sV\u5361\u5854\u5c14\u4eba
p533
L532L
sV\u960e\u4e16\u94ce
p534
L533L
sV\u9650\u552e
p535
L534L
sV\u65e0\u4ece\u67e5\u8bc1
p536
L535L
sV\u6295\u6ce8\u989d
p537
L536L
sV\u62c5\u4fdd\u91d1
p538
L537L
sV\u7f8e\u56fd\u7b7e\u8bc1
p539
L538L
sV\u5408\u540c\u6587\u672c
p540
L539L
sV\u53cb\u8c0a\u6bd4\u8d5b
p541
L540L
sV\u6731\u51ef
p542
L541L
sV\u666e\u9640\u533a
p543
L542L
sV\u683c\u6797\u65af
p544
L543L
sV\u5f53\u5bb6\u82b1\u65e6
p545
L544L
sV\u53d1\u6325\u7279\u957f
p546
L545L
sV\u5317\u4eac\u56fd\u5b89\u961f
p547
L546L
sV\u55b7\u6c14\u673a
p548
L547L
sV\u4e39\u9ea6\u961f
p549
L548L
sV\u6392\u4f4d\u8d5b
p550
L549L
sV\u843d\u4e0b\u98ce
p551
L550L
sV\u51c0\u80dc\u7403
p552
L551L
sV\u4e3b\u529e\u6743
p553
L552L
sV\u738b\u6ce2
p554
L553L
sV\u5e03\u62c9\u7279
p555
L554L
sV\u4e9a\u7279\u5170\u8482\u65af
p556
L555L
sV\u4e8b\u4ef6\u8c03\u67e5
p557
L556L
sV\u6d59\u6c5f\u961f
p558
L557L
sV\u5730\u60f3
p559
L558L
sV\u8282\u76ee\u7ec4
p560
L559L
sV\u4f59\u5206\u949f
p561
L560L
sV\u66fc\u8bf4
p562
L561L
sV\u56db\u533a
p563
L562L
sV\u656c\u4e1a\u7cbe\u795e
p564
L563L
sV\u5218\u6625\u660e
p565
L564L
sV\u674e\u5029
p566
L565L
sV\u4fdd\u5e73
p567
L566L
sV\u7b2c\u4e8c\u5219
p568
L567L
sV\u8fd0\u52a8\u670d\u88c5
p569
L568L
sV\u95ea\u5149\u70b9
p570
L569L
sV\u9ad8\u5fd7
p571
L570L
sV\u5165\u961f
p572
L571L
sV\u671d\u4e5d\u665a\u4e94
p573
L572L
sV\u4e2d\u5747
p574
L573L
sV\u60ca\u73b0
p575
L574L
sV\u66fc\u57ce
p576
L575L
sV\u610f\u7532
p577
L576L
sV\u7532\u7ec4
p578
L577L
sV\u5317\u4eac\u673a\u573a
p579
L578L
sV\u745e\u5178\u961f
p580
L579L
sV\u5faa\u73af\u8d5b
p581
L580L
sV\u5218\u9752
p582
L581L
sV\u5929\u65f6\u5730\u5229\u4eba\u548c
p583
L582L
sV\u5947\u5c3c
p584
L583L
sV\u5f8b\u5e08\u6240
p585
L584L
sV\u5341\u573a
p586
L585L
sV\u8d77\u7ea0\u7eb7
p587
L586L
sV\u4e9a\u9526\u8d5b
p588
L587L
sV\u738b\u5a77\u5a77
p589
L588L
sV\u4f53\u80b2\u8001\u5e08
p590
L589L
sV\u91d1\u5149\u5927\u9053
p591
L590L
sV\u4f4e\u5f00
p592
L591L
sV\u4e13\u4e1a\u961f
p593
L592L
sV\u8d5b\u679c
p594
L593L
sV\u5403\u5403\u996d
p595
L594L
sV\u8367\u5e55
p596
L595L
sV\u9999\u6e2f\u961f
p597
L596L
sV\u5de6\u8def\u4f20
p598
L597L
sV\u5012\u65f6\u5dee
p599
L598L
sV\u4ef0\u5929\u957f\u5578
p600
L599L
sV\u4e3b\u5ba2\u573a
p601
L600L
sV\u51a0\u519b\u8054\u8d5b
p602
L601L
sV\u4f3c\u5df2
p603
L602L
sV\u8096\u826f\u5fd7
p604
L603L
sV\u53cd\u8d4c
p605
L604L
sV\u6212\u8d4c
p606
L605L
sV\u4ed6\u4f1a
p607
L606L
sV\u674e\u5fd7\u6c11
p608
L607L
sV\u901a\u7f09\u72af
p609
L608L
sV\u5f00\u623f
p610
L609L
sV\u5c0f\u9686
p611
L610L
sV\u9c7c\u5c0f\u867e
p612
L611L
sV\u660e\u661f\u961f
p613
L612L
sV\u9999\u6e2f\u5e02\u6c11
p614
L613L
sV\u65b0\u52a0\u5761\u5143
p615
L614L
sV\u6389\u5305
p616
L615L
sV\u5355\u5faa\u73af
p617
L616L
sV\u5218\u5cf0
p618
L617L
sV\u9500\u6237
p619
L618L
sV\u55b7\u7ed8
p620
L619L
sV\u5546\u745e\u534e
p621
L620L
sV\u5b98\u7f51
p622
L621L
sV\u51fa\u7ebf\u6743
p623
L622L
sV\u8096\u5929
p624
L623L
sV\u4e2d\u56fd\u8db3\u7403\u534f\u4f1a
p625
L624L
sV\u514b\u52b3\u8fea
p626
L625L
sV\u5708\u5185\u4eba
p627
L626L
sV\u9632\u6f0f
p628
L627L
sV\u5168\u6848
p629
L628L
sV\u82f1\u8bed\u6c34\u5e73
p630
L629L
sV\u591a\u529f\u80fd\u5385
p631
L630L
sV\u7ecf\u5178\u8bed\u5f55
p632
L631L
sV\u56db\u5341\u4e94\u5206
p633
L632L
sV\u5317\u6f02
p634
L633L
sV\u5047\u8d4c
p635
L634L
sV\u6709\u592a\u5927
p636
L635L
sV\u56fd\u5bb6\u8db3\u7403\u961f
p637
L636L
sV\u65b0\u5e74\u5feb\u4e50
p638
L637L
sV\u4e00\u4e66\u4e2d
p639
L638L
sV\u8db3\u7403\u62a5
p640
L639L
sV\u6768\u4e00\u6c11
p641
L640L
sV\u6539\u7f16\u6743
p642
L641L
sV\u91c7\u8bbf\u6743
p643
L642L
sV\u65b0\u4e00\u4efb
p644
L643L
sV\u5218\u5609\u73b2
p645
L644L
sV\u50ac\u503a
p646
L645L
sV\u8d3e\u79c0\u5168
p647
L646L
sV\u963f\u8d3e\u514b\u65af
p648
L647L
sV\u5f20\u5b81
p649
L648L
sV\u5708\u5916\u4eba
p650
L649L
sV\u6293\u5927\u653e\u5c0f
p651
L650L
sV\u8fd9\u6863
p652
L651L
sV\u4e1a\u4f59\u9009\u624b
p653
L652L
sV\u670d\u4ece\u5b89\u6392
p654
L653L
sV\u7f16\u540e
p655
L654L
sV\u674e\u4f73
p656
L655L
sV\u516c\u52a1\u6d3b\u52a8
p657
L656L
sV\u4f53\u80b2\u8ff7
p658
L657L
sV\u8d5b\u5236
p659
L658L
sV\u6253\u7206
p660
L659L
sV\u8db3\u7ba1
p661
L660L
sV\u5956\u724c\u699c
p662
L661L
sV\u65e7\u8c8c\u6362\u65b0\u989c
p663
L662L
sV\u963f\u51e1
p664
L663L
sV\u68c9\u5916\u5957
p665
L664L
sV\u65b0\u5468\u520a
p666
L665L
sV\u533f\u540d\u4e3e\u62a5
p667
L666L
sV\u5b63\u540e\u8d5b
p668
L667L
sV\u6539\u8fc7\u81ea\u65b0
p669
L668L
sV\u9ad8\u7ba1
p670
L669L
sV\u4e0a\u6d77\u7c4d
p671
L670L
sV\u7231\u751f\u6068
p672
L671L
sV\u4e0a\u8981
p673
L672L
sV\u6211\u6765
p674
L673L
sV\u4e09\u6ce2
p675
L674L
sV\u4f53\u9662
p676
L675L
sV\u4e3e\u91cd\u961f
p677
L676L
sV\u5973\u8db3\u8d5b
p678
L677L
sV\u56db\u5f3a\u8d5b
p679
L678L
sV\u76f4\u51fb
p680
L679L
sV\u5766\u767d\u8bb2
p681
L680L
sV\u4e3b\u6293
p682
L681L
sV\u5973\u8db3
p683
L682L
sV\u798f\u7279\u5b9d
p684
L683L
sV\u56e0\u6545\u53d6\u6d88
p685
L684L
sV\u524d\u56fd\u8db3
p686
L685L
sV\u6700\u65b0\u7248
p687
L686L
sV\u5468\u660e
p688
L687L
sV\u4f1a\u8bae\u8bae\u7a0b
p689
L688L
sV\u673a\u5173\u515a\u59d4
p690
L689L
sV\u5c0f\u7ec4\u8ba8\u8bba
p691
L690L
sV\u7efc\u5408\u90e8
p692
L691L
sV\u5916\u4e8b\u90e8
p693
L692L
sV\u70b9\u534a
p694
L693L
sV\u5b8b\u536b
p695
L694L
sV\u9ec4\u4fca\u6770
p696
L695L
sV\u753b\u5916\u97f3
p697
L696L
sV\u56fd\u9645\u5211\u8b66\u7ec4\u7ec7
p698
L697L
sV\u56fd\u9645\u88c1\u5224
p699
L698L
sV\u5916\u8d38\u751f\u610f
p700
L699L
sV\u6d89\u6848\u8005
p701
L700L
sV\u5c01\u53e3\u4ee4
p702
L701L
sV\u62db\u724c\u5f0f
p703
L702L
sV\u6709\u4e2a
p704
L703L
sV\u8d5e\u52a9\u8d39
p705
L704L
sV\u5199\u6ee1
p706
L705L
sV\u5317\u533b\u4e09\u9662
p707
L706L
sV\u6b63\u6709
p708
L707L
sV\u5927\u800c\u5168
p709
L708L
sV\u627f\u529e\u65b9
p710
L709L
sV\u7ade\u8d5b\u90e8
p711
L710L
sV\u526f\u9886\u961f
p712
L711L
sV\u674e\u51ac\u751f
p713
L712L
sV\u4e00\u804c
p714
L713L
sV\u673a\u6784\u8c03\u6574
p715
L714L
sV\u7eb8\u676f
p716
L715L
sV\u65f7\u5de5
p717
L716L
sV\u5927\u5410\u82e6\u6c34
p718
L717L
sV\u5728\u4f1a\u8c08\u4e2d
p719
L718L
sV\u5999\u62db
p720
L719L
sV\u6302\u804c\u953b\u70bc
p721
L720L
sV\u6211\u521a
p722
L721L
sV\u66f9\u666f\u4f1f
p723
L722L
sV\u5730\u8bf4
p724
L723L
sV\u6bd4\u5229\u4e9a\u96f7
p725
L724L
sV\u9a6c\u6d1b\u5361
p726
L725L
sV\u5fb7\u79d1
p727
L726L
sV\u8058\u7ea6
p728
L727L
sV\u6cf0\u56fd\u961f
p729
L728L
sV\u52a0\u62ff\u5927\u961f
p730
L729L
sV\u5f20\u660a
p731
L730L
sV\u5341\u4f59\u4e07\u5143
p732
L731L
sV\u5173\u95e8\u5927\u5409
p733
L732L
sV\u6761\u8def
p734
L733L
sV\u82ad\u6bd4
p735
L734L
sV\u5047\u5c0f\u5b50
p736
L735L
sV\u9999\u6e2f\u5ec9\u653f\u516c\u7f72
p737
L736L
sV\u4e24\u767e\u5143
p738
L737L
sV\u4e24\u80dc
p739
L738L
sV\u6570\u8f6e
p740
L739L
sV\u5ec9\u653f\u516c\u7f72
p741
L740L
sV\u5171\u901a\u6027
p742
L741L
sV\u804a\u5929\u5de5\u5177
p743
L742L
sV\u5171\u540c\u8bdd\u9898
p744
L743L
sV\u62c9\u8d5e\u52a9
p745
L744L
sV\u7ade\u6280\u72b6\u6001
p746
L745L
sV\u8054\u5408\u665a\u62a5
p747
L746L
sV\u5e74\u9f84\u5c42
p748
L747L
sV\u82f1\u8bed\u53e3\u8bed
p749
L748L
sV\u80cc\u5355\u8bcd
p750
L749L
sV\u96c5\u601d\u8003\u8bd5
p751
L750L
sV\u6218\u5168\u80dc
p752
L751L
sV\u9c7c\u8169
p753
L752L
sV\u4fdd\u5e73\u4e89
p754
L753L
sV\u522b\u8c08
p755
L754L
sV\u4e89\u593a\u8005
p756
L755L
sV\u7981\u6bd2
p757
L756L
sV\u7279\u8272\u83dc
p758
L757L
sV\u5168\u8f93
p759
L758L
sV\u653b\u51fb\u70b9
p760
L759L
sV\u602a\u62db
p761
L760L
sV\u51fa\u9053\u65f6
p762
L761L
sV\u62fc\u4e0d\u8fc7
p763
L762L
sV\u8be5\u573a
p764
L763L
sV\u66fc\u65af
p765
L764L
sV\u8981\u51fa
p766
L765L
sV\u8d85\u7ea7\u5973
p767
L766L
sV\u5357\u90ed\u5148\u751f
p768
L767L
sV\u957f\u9879
p769
L768L
sV\u5c0f\u8d1d
p770
L769L
sV\u80dc\u52bf
p771
L770L
sV\u51e0\u767e\u6240
p772
L771L
sV\u4eba\u5927\u9644\u4e2d
p773
L772L
sV\u5e02\u6559\u59d4
p774
L773L
sV\u5bfb\u5e38\u8def
p775
L774L
sV\u4e3e\u529e\u6743
p776
L775L
sV\u6d77\u6d0b\u9986
p777
L776L
sV\u623f\u7956\u540d
p778
L777L
sV\u89e3\u6784
p779
L778L
sV\u4eca\u65e9
p780
L779L
sV\u804a\u8fc7
p781
L780L
sV\u97e9\u56fd\u8054\u5408\u901a\u8baf\u793e
p782
L781L
sV\u6848\u5f00\u5ead
p783
L782L
sV\u6d89\u6848\u4eba
p784
L783L
sV\u4e52\u4e53\u7403\u961f
p785
L784L
sV\u552f\u4e00\u4e00
p786
L785L
sV\u503a\u52a1\u7f20\u8eab
p787
L786L
sV\u6587\u4e2d\u8bf4
p788
L787L
sV\u4e1a\u52a1\u5b66\u4e60
p789
L788L
sV\u5b9e\u5230
p790
L789L
sV\u5de5\u4f5c\u65e5\u7a0b
p791
L790L
sV\u5e78\u8fd0\u661f
p792
L791L
sV\u5916\u8bed\u6c34\u5e73
p793
L792L
sV\u674e\u9704\u9e4f
p794
L793L
sV\u5c3c\u7279
p795
L794L
sV\u5730\u7b11
p796
L795L
sV\u62c9\u4e0b\u6c34
p797
L796L
sV\u699c\u4e0a\u65e0\u540d
p798
L797L
sV\u5171\u72af
p799
L798L
sV\u5fae\u535a
p800
L799L
sV\u72ee\u57ce
p801
L800L
sV\u5728\u62bc\u4eba\u5458
p802
L801L
sV\u5f00\u5305
p803
L802L
sV\u77ed\u5e73\u5feb
p804
L803L
sV\u8d70\u8d26
p805
L804L
sV\u4eba\u6562
p806
L805L
sV\u516c\u5173\u6d3b\u52a8
p807
L806L
sV\u8d4c\u503a
p808
L807L
sV\u4e1c\u4e94\u73af
p809
L808L
sV\u98ce\u6c34\u5e08
p810
L809L
sV\u597d\u5f69\u5934
p811
L810L
sV\u4e94\u53f7\u7ebf
p812
L811L
sV\u6dcb\u6d74\u5ba4
p813
L812L
sV\u4e2d\u4ecb\u8d39
p814
L813L
sV\u5c24\u6587\u56fe\u65af\u961f
p815
L814L
sV\u62c9\u9f50\u5965
p816
L815L
sV\u5c24\u6587\u56fe\u65af
p817
L816L
sV\u4e2d\u79f0
p818
L817L
sV\u5927\u5e08\u8d5b
p819
L818L
sV\u80d6\u54e5
p820
L819L
sV\u65f6\u79f0
p821
L820L
sV\u521a\u8fdb
p822
L821L
sV\u608d\u9a6c
p823
L822L
sV\u4eba\u751f\u8def
p824
L823L
sV\u827e\u8fea
p825
L824L
sV\u5dc5\u5cf0\u72b6\u6001
p826
L825L
sV\u4e0d\u4e0a
p827
L826L
sV\u843d\u5165\u6cd5\u7f51
p828
L827L
sV\u8be5\u80a1
p829
L828L
sV\u798f\u514b\u65af\u516c\u53f8
p830
L829L
sV\u8fd9\u4e00\u6ce2
p831
L830L
sV\u7f81\u62bc\u4e8e
p832
L831L
sV\u8457\u540d\u6f14\u5458
p833
L832L
sV\u6bcd\u4eb2\u8282
p834
L833L
sV\u53e4\u7075\u7cbe\u602a
p835
L834L
sV\u7f8e\u5c11\u5973
p836
L835L
sV\u81ea\u62cd
p837
L836L
sV\u674e\u5c0f\u7490
p838
L837L
sV\u7d27\u5b9e
p839
L838L
sV\u7d20\u9762\u671d\u5929
p840
L839L
sV\u7ec4\u56fe
p841
L840L
sV\u6c11\u5efa\u4e2d\u592e
p842
L841L
sV\u6237\u540d
p843
L842L
sV\u516b\u516b
p844
L843L
sV\u9648\u83f2
p845
L844L
sV\u5927\u53d8\u8eab
p846
L845L
sV\u5168\u5fc3\u6295\u5165
p847
L846L
sV\u771f\u6027\u60c5
p848
L847L
sV\u56fd\u4ea7\u7247
p849
L848L
sV\u4ea7\u751f\u5171\u9e23
p850
L849L
sV\u9ad8\u8170\u7ebf
p851
L850L
sV\u9ad8\u5c14\u592b\u7403\u8d5b
p852
L851L
sV\u62a2\u62cd
p853
L852L
sV\u516d\u7ec4
p854
L853L
sV\u66a7\u6627\u4e0d\u660e
p855
L854L
sV\u5e0c\u5c14\u987f
p856
L855L
sV\u65b0\u52a0\u5761\u4eba
p857
L856L
sV\u7eff\u5361
p858
L857L
sV\u96be\u6c42
p859
L858L
sV\u7537\u4e00\u53f7
p860
L859L
sV\u653e\u6b4c
p861
L860L
sV\u7f8e\u98df\u5bb6
p862
L861L
sV\u7aef\u76d8\u5b50
p863
L862L
sV\u5c0f\u8d44
p864
L863L
sV\u5fb7\u827a\u53cc\u99a8
p865
L864L
sV\u6050\u6016\u7247
p866
L865L
sV\u539f\u4f5c\u8005
p867
L866L
sV\u52a8\u753b\u7248
p868
L867L
sV\u6770\u68ee
p869
L868L
sV\u63a2\u5458
p870
L869L
sV\u6307\u73af\u738b
p871
L870L
sV\u8a79\u91d1\u65af
p872
L871L
sV\u65e0\u95f4\u9053
p873
L872L
sV\u661f\u5973\u90ce
p874
L873L
sV\u6842\u7eb6
p875
L874L
sV\u7f8e\u56fd\u7248
p876
L875L
sV\u91cd\u62cd
p877
L876L
sV\u8b66\u532a\u7247
p878
L877L
sV\u7968\u623f\u699c
p879
L878L
sV\u56fd\u9645\u578b
p880
L879L
sV\u5434\u4eac
p881
L880L
sV\u4f73\u8bc4
p882
L881L
sV\u5b89\u5409\u4e3d\u5a1c
p883
L882L
sV\u65af\u83b1\u7279
p884
L883L
sV\u5077\u5e08
p885
L884L
sV\u5c39\u4fca
p886
L885L
sV\u5916\u666f\u5730
p887
L886L
sV\u5df2\u8fd1
p888
L887L
sV\u5f00\u955c
p889
L888L
sV\u60ca\u609a\u7247
p890
L889L
sV\u6d2a\u91d1\u5b9d
p891
L890L
sV\u897f\u4e5d\u9f99
p892
L891L
sV\u5c55\u6620
p893
L892L
sV\u9b4f\u5148\u751f
p894
L893L
sV\u6e2f\u7247
p895
L894L
sV\u5927\u56db\u559c
p896
L895L
sV\u7eb3\u5c3c\u4e9a
p897
L896L
sV\u827e\u7f8e\u5956
p898
L897L
sV\u6e2f\u7248
p899
L898L
sV\u5218\u9752\u4e91
p900
L899L
sV\u5ea6\u871c\u6708
p901
L900L
sV\u7231\u5de2
p902
L901L
sV\u9648\u6167\u7433
p903
L902L
sV\u8b66\u532a
p904
L903L
sV\u5173\u4e4b\u7433
p905
L904L
sV\u65af\u8482\u592b
p906
L905L
sV\u4e3d\u5f71
p907
L906L
sV\u76ae\u514b\u65af
p908
L907L
sV\u8759\u8760\u4fa0
p909
L908L
sV\u8718\u86db\u4fa0
p910
L909L
sV\u6234\u592b
p911
L910L
sV\u6162\u5de5
p912
L911L
sV\u72e0\u4e0b
p913
L912L
sV\u9970\u6f14\u8005
p914
L913L
sV\u4f20\u8bb0\u7247
p915
L914L
sV\u5173\u9526\u9e4f
p916
L915L
sV\u9ed1\u5e2e\u7247
p917
L916L
sV\u56de\u6e2f
p918
L917L
sV\u6e2f\u4ea7
p919
L918L
sV\u6881\u5bb6\u8f89
p920
L919L
sV\u9f99\u7684\u4f20\u4eba
p921
L920L
sV\u5973\u9009\u624b
p922
L921L
sV\u4e94\u97f3\u4e0d\u5168
p923
L922L
sV\u4e1c\u6210\u897f\u5c31
p924
L923L
sV\u53f0\u524d\u5e55\u540e
p925
L924L
sV\u5e86\u751f
p926
L925L
sV\u65e5\u4e45\u751f\u60c5
p927
L926L
sV\u59dc\u6587
p928
L927L
sV\u7535\u5b50\u7248
p929
L928L
sV\u9996\u6620\u4f1a
p930
L929L
sV\u5171\u8944\u76db\u4e3e
p931
L930L
sV\u4ea6\u6b63\u4ea6\u90aa
p932
L931L
sV\u5076\u50cf\u5267
p933
L932L
sV\u54c8\u7ef4\u5c14
p934
L933L
sV\u5148\u7779\u4e3a\u5feb
p935
L934L
sV\u7247\u65b9
p936
L935L
sV\u84dd\u5b87
p937
L936L
sV\u8bd5\u8863\u95f4
p938
L937L
sV\u8d2d\u7269\u72c2
p939
L938L
sV\u738b\u59ec
p940
L939L
sV\u6c89\u8ff7\u5728
p941
L940L
sV\u51ef\u4e3d
p942
L941L
sV\u70ed\u543b
p943
L942L
sV\u94c1\u4e09\u89d2
p944
L943L
sV\u5973\u4e3b\u64ad
p945
L944L
sV\u4f20\u5a92\u5927\u5b66
p946
L945L
sV\u795e\u63a2
p947
L946L
sV\u526a\u5934\u53d1
p948
L947L
sV\u8b66\u5bdf\u6545\u4e8b
p949
L948L
sV\u6d77\u6dc0\u6cd5\u9662
p950
L949L
sV\u5149\u789f
p951
L950L
sV\u559c\u611f
p952
L951L
sV\u5929\u5dee\u5730\u522b
p953
L952L
sV\u8d2c\u4e49\u8bcd
p954
L953L
sV\u9752\u6625\u5076\u50cf
p955
L954L
sV\u5f20\u745c
p956
L955L
sV\u6b66\u6253\u620f
p957
L956L
sV\u8d75\u6587\u5353
p958
L957L
sV\u60c5\u4fa3\u88c5
p959
L958L
sV\u82b1\u8fb9\u65b0\u95fb
p960
L959L
sV\u591a\u591a\u6307\u6559
p961
L960L
sV\u738b\u99a5\u8354
p962
L961L
sV\u7f8e\u68a6\u6210\u771f
p963
L962L
sV\u5f20\u9753\u9896
p964
L963L
sV\u738b\u751f
p965
L964L
sV\u534e\u8868\u5956
p966
L965L
sV\u9881\u5956\u793c
p967
L966L
sV\u9177\u9177
p968
L967L
sV\u8303\u9038\u81e3
p969
L968L
sV\u5f7b\u5f7b\u5e95\u5e95
p970
L969L
sV\u674e\u5b89
p971
L970L
sV\u4e09\u7ea7\u7247
p972
L971L
sV\u672c\u7247
p973
L972L
sV\u6797\u9752\u971e
p974
L973L
sV\u98ce\u683c\u5316
p975
L974L
sV\u5f20\u4e1c\u5065
p976
L975L
sV\u9c7c\u9c7c
p977
L976L
sV\u542c\u6b4c
p978
L977L
sV\u51e0\u90e8\u620f
p979
L978L
sV\u548f\u6625\u62f3
p980
L979L
sV\u4e4b\u5203
p981
L980L
sV\u65af\u76ae\u5c14\u4f2f\u683c
p982
L981L
sV\u68a6\u5de5\u5382
p983
L982L
sV\u7231\u60c5\u559c\u5267
p984
L983L
sV\u91cd\u60c5
p985
L984L
sV\u7231\u60c5\u7247
p986
L985L
sV\u82e6\u604b
p987
L986L
sV\u5904\u5973\u79c0
p988
L987L
sV\u78e8\u4e00\u5251
p989
L988L
sV\u5f88\u591a\u904d
p990
L989L
sV\u5973\u914d\u89d2
p991
L990L
sV\u653f\u5e9c\u5956
p992
L991L
sV\u6f58\u8679
p993
L992L
sV\u5b5f\u5efa\u67f1
p994
L993L
sV\u7537\u5b69\u513f
p995
L994L
sV\u8042\u8fdc
p996
L995L
sV\u91d1\u57ce\u6b66
p997
L996L
sV\u704c\u7bee
p998
L997L
sV\u53e4\u5929\u4e50
p999
L998L
sV\u97f3\u6548
p1000
L999L
sV\u6b4c\u821e\u7247
p1001
L1000L
sV\u8df3\u697c\u81ea\u6740
p1002
L1001L
sV\u8c22\u664b
p1003
L1002L
sV\u8521\u5353\u598d
p1004
L1003L
sV\u770b\u7247\u4f1a
p1005
L1004L
sV\u521d\u543b
p1006
L1005L
sV\u6587\u827a\u7247
p1007
L1006L
sV\u5ba1\u7f8e\u75b2\u52b3
p1008
L1007L
sV\u963f\u7518\u6b63\u4f20
p1009
L1008L
sV\u7f8e\u7537
p1010
L1009L
sV\u6f58\u6735\u62c9
p1011
L1010L
sV\u6770\u7c73
p1012
L1011L
sV\u8bd5\u955c
p1013
L1012L
sV\u5c0f\u522b\u5885
p1014
L1013L
sV\u7b2c\u4e09\u96c6
p1015
L1014L
sV\u8c08\u60c5
p1016
L1015L
sV\u6b66\u6253\u7247
p1017
L1016L
sV\u6885\u8446\u7396
p1018
L1017L
sV\u5f20\u56fd\u8363
p1019
L1018L
sV\u5c3d\u529b\u53bb\u505a
p1020
L1019L
sV\u5f88\u7eaf
p1021
L1020L
sV\u526f\u6807\u9898
p1022
L1021L
sV\u5317\u5f71
p1023
L1022L
sV\u5f8b\u5e08\u51fd
p1024
L1023L
sV\u4e25\u6b4c\u82d3
p1025
L1024L
sV\u8d44\u52a9\u8005
p1026
L1025L
sV\u827e\u5c14\u6587
p1027
L1026L
sV\u505c\u8f6c
p1028
L1027L
sV\u845b\u4f18
p1029
L1028L
sV\u63ed\u5e55\u4eea\u5f0f
p1030
L1029L
sV\u8d64\u58c1\u5927\u6218
p1031
L1030L
sV\u5f20\u5929
p1032
L1031L
sV\u90d1\u79c0\u6587
p1033
L1032L
sV\u7532\u65b9\u4e59\u65b9
p1034
L1033L
sV\u4e0d\u89c1\u4e0d\u6563
p1035
L1034L
sV\u5f71\u7247\u7c7b\u578b
p1036
L1035L
sV\u51fa\u955c\u7387
p1037
L1036L
sV\u5415\u4e3d\u840d
p1038
L1037L
sV\u4e25\u5b88\u4e00
p1039
L1038L
sV\u4eb2\u5386\u8005
p1040
L1039L
sV\u7b79\u62cd
p1041
L1040L
sV\u5b66\u5175
p1042
L1041L
sV\u65e0\u56fd\u754c
p1043
L1042L
sV\u9996\u6620\u5f0f
p1044
L1043L
sV\u5f71\u5c55
p1045
L1044L
sV\u65b0\u5e74\u597d
p1046
L1045L
sV\u4e2d\u56fd\u7535\u5f71\u5bb6\u534f\u4f1a
p1047
L1046L
sV\u90d1\u4e2d\u57fa
p1048
L1047L
sV\u5927\u5e74\u521d\u4e09
p1049
L1048L
sV\u738b\u6714
p1050
L1049L
sV\u6d6a\u6f2b\u7231\u60c5
p1051
L1050L
sV\u7231\u60c5\u89c2
p1052
L1051L
sV\u88c5\u4fee\u5de5
p1053
L1052L
sV\u6ee5\u60c5
p1054
L1053L
sV\u8d4c\u738b
p1055
L1054L
sV\u6e38\u9f99\u620f\u51e4
p1056
L1055L
sV\u591a\u91d1
p1057
L1056L
sV\u6027\u683c\u7279\u70b9
p1058
L1057L
sV\u4fdd\u9c9c\u819c
p1059
L1058L
sV\u620f\u5916
p1060
L1059L
sV\u8ba8\u5de7
p1061
L1060L
sV\u58a8\u5b88\u9648\u89c4
p1062
L1061L
sV\u521d\u591c
p1063
L1062L
sV\u5f20\u94c1\u6797
p1064
L1063L
sV\u5de5\u4f5c\u72c2
p1065
L1064L
sV\u7ae5\u771f
p1066
L1065L
sV\u5de8\u7247
p1067
L1066L
sV\u82ac\u59ae
p1068
L1067L
sV\u5927\u6bd4\u62fc
p1069
L1068L
sV\u79c0\u51fa
p1070
L1069L
sV\u6218\u4e89\u7247
p1071
L1070L
sV\u975e\u8bda
p1072
L1071L
sV\u9c9c\u5c11
p1073
L1072L
sV\u738b\u5fd7\u6587
p1074
L1073L
sV\u6f14\u8d77\u6765
p1075
L1074L
sV\u9edb\u5b89\u5a1c
p1076
L1075L
sV\u5c0f\u6f14\u5458
p1077
L1076L
sV\u7535\u89c6\u5267\u96c6
p1078
L1077L
sV\u53cd\u6d3e
p1079
L1078L
sV\u7ec8\u6781\u7248
p1080
L1079L
sV\u4e1c\u90aa\u897f\u6bd2
p1081
L1080L
sV\u67ef\u6797
p1082
L1081L
sV\u8131\u8863\u821e
p1083
L1082L
sV\u738b\u529b\u5b8f
p1084
L1083L
sV\u7279\u522b\u611f\u8c22
p1085
L1084L
sV\u4efb\u8d24\u9f50
p1086
L1085L
sV\u6797\u5efa\u5cb3
p1087
L1086L
sV\u4e9a\u89c6
p1088
L1087L
sV\u62c9\u8d1d
p1089
L1088L
sV\u524d\u4f20
p1090
L1089L
sV\u63a5\u62cd
p1091
L1090L
sV\u4e3b\u521b\u4eba\u5458
p1092
L1091L
sV\u81ea\u95ed
p1093
L1092L
sV\u5766\u767d\u8bf4
p1094
L1093L
sV\u62a4\u82b1\u4f7f\u8005
p1095
L1094L
sV\u6539\u7f16\u81ea
p1096
L1095L
sV\u8d75\u9759
p1097
L1096L
sV\u6218\u961f
p1098
L1097L
sV\u82b1\u843d\u8c01\u5bb6
p1099
L1098L
sV\u8d4f\u6790
p1100
L1099L
sV\u8bd5\u6620
p1101
L1100L
sV\u97e9\u5267
p1102
L1101L
sV\u5927\u73a9
p1103
L1102L
sV\u5434\u5f66\u7956
p1104
L1103L
sV\u7247\u5546
p1105
L1104L
sV\u4faf\u5b5d\u8d24
p1106
L1105L
sV\u901a\u8fc7\u5ba1\u67e5
p1107
L1106L
sV\u591c\u5e97
p1108
L1107L
sV\u9a91\u5355\u8f66
p1109
L1108L
sV\u665a\u88c5
p1110
L1109L
sV\u9910\u70b9
p1111
L1110L
sV\u65b0\u5f71\u8054
p1112
L1111L
sV\u7247\u82b1
p1113
L1112L
sV\u60ac\u7591\u7247
p1114
L1113L
sV\u5927\u671b\u8def
p1115
L1114L
sV\u5bf9\u620f
p1116
L1115L
sV\u62cd\u6444\u5730
p1117
L1116L
sV\u4f4e\u6f6e\u671f
p1118
L1117L
sV\u89c2\u540e\u611f
p1119
L1118L
sV\u5f00\u4e0a\u53bb
p1120
L1119L
sV\u9009\u6bb5
p1121
L1120L
sV\u65e0\u77e5\u8005
p1122
L1121L
sV\u5de8\u86cb
p1123
L1122L
sV\u5730\u5411
p1124
L1123L
sV\u7cfb\u5217\u5267
p1125
L1124L
sV\u70c2\u7247
p1126
L1125L
sV\u5965\u6797\u5339\u514b\u516c\u56ed
p1127
L1126L
sV\u6570\u661f\u661f
p1128
L1127L
sV\u6d77\u7eb3\u767e\u5ddd
p1129
L1128L
sV\u660e\u6708\u5149
p1130
L1129L
sV\u6851\u5fb7\u62c9
p1131
L1130L
sV\u5bb6\u5ead\u805a\u4f1a
p1132
L1131L
sV\u7279\u8f91
p1133
L1132L
sV\u7535\u90ae
p1134
L1133L
sV\u53d6\u6750\u81ea
p1135
L1134L
sV\u624b\u673a\u94fe
p1136
L1135L
sV\u9886\u8854\u4e3b\u6f14
p1137
L1136L
sV\u8eab\u4f53\u8bed\u8a00
p1138
L1137L
sV\u8f69\u5c3c\u8bd7
p1139
L1138L
sV\u89c2\u4f17\u7fa4
p1140
L1139L
sV\u672c\u771f
p1141
L1140L
sV\u82b1\u5927\u94b1
p1142
L1141L
sV\u60c5\u975e\u5f97\u5df2
p1143
L1142L
sV\u738b\u5c0f\u5e05
p1144
L1143L
sV\u53cd\u6d3e\u4eba\u7269
p1145
L1144L
sV\u6c83\u7279\u68ee
p1146
L1145L
sV\u8a79\u59ae\u5f17
p1147
L1146L
sV\u827e\u739b
p1148
L1147L
sV\u5434\u5b87\u68ee
p1149
L1148L
sV\u8377\u91cc\u6d3b
p1150
L1149L
sV\u7535\u5f71\u5de5\u4e1a
p1151
L1150L
sV\u8c0b\u5973\u90ce
p1152
L1151L
sV\u7a7f\u5e2e
p1153
L1152L
sV\u7a0b\u5a74
p1154
L1153L
sV\u6709\u5fd7\u8005\u4e8b\u7adf\u6210
p1155
L1154L
sV\u4e0d\u8f93\u7ed9
p1156
L1155L
sV\u72ec\u7f3a
p1157
L1156L
sV\u7247\u7ea6
p1158
L1157L
sV\u59ca\u59b9\u7bc7
p1159
L1158L
sV\u8fdb\u5f71\u9662
p1160
L1159L
sV\u6df7\u5f55
p1161
L1160L
sV\u5a1c\u5854\u8389
p1162
L1161L
sV\u6ce2\u7279\u66fc
p1163
L1162L
sV\u57fa\u601d
p1164
L1163L
sV\u91d1\u7403
p1165
L1164L
sV\u5a5a\u5916
p1166
L1165L
sV\u5915\u9633\u7ea2
p1167
L1166L
sV\u8d1d\u5f17\u5229
p1168
L1167L
sV\u7247\u957f
p1169
L1168L
sV\u7279\u857e\u897f
p1170
L1169L
sV\u73af\u6e38\u4e16\u754c
p1171
L1170L
sV\u9648\u6653\u4e1c
p1172
L1171L
sV\u697c\u95f4\u8ddd
p1173
L1172L
sV\u4e13\u60c5
p1174
L1173L
sV\u4e70\u9189
p1175
L1174L
sV\u5343\u79a7\u5e74
p1176
L1175L
sV\u516c\u5f00\u8bfe
p1177
L1176L
sV\u5934\u6587\u5b57
p1178
L1177L
sV\u4fa0\u76d7
p1179
L1178L
sV\u5965\u7279\u66fc
p1180
L1179L
sV\u7535\u5f71\u7248
p1181
L1180L
sV\u8df3\u7968
p1182
L1181L
sV\u7f51\u901f
p1183
L1182L
sV\u516c\u4ed4
p1184
L1183L
sV\u4ee3\u552e
p1185
L1184L
sV\u5154\u5e74
p1186
L1185L
sV\u52a8\u753b\u7535\u5f71
p1187
L1186L
sV\u9b54\u6212
p1188
L1187L
sV\u5927\u7ed3\u5c40
p1189
L1188L
sV\u8d2a\u5ff5
p1190
L1189L
sV\u9760\u9760
p1191
L1190L
sV\u5df4\u83b1
p1192
L1191L
sV\u4e2d\u63d0
p1193
L1192L
sV\u5ba2\u4e32\u6f14\u51fa
p1194
L1193L
sV\u52b2\u821e
p1195
L1194L
sV\u592a\u70c2
p1196
L1195L
sV\u540e\u671f\u5236\u4f5c
p1197
L1196L
sV\u65b0\u7247
p1198
L1197L
sV\u53e4\u88c5\u5267
p1199
L1198L
sV\u53e4\u88c5\u7247
p1200
L1199L
sV\u9648\u7ea2
p1201
L1200L
sV\u8c10\u661f
p1202
L1201L
sV\u8d5b\u70b9
p1203
L1202L
sV\u9009\u7247
p1204
L1203L
sV\u7cbe\u54c1\u5c4b
p1205
L1204L
sV\u4e5d\u4e8c
p1206
L1205L
sV\u6df1\u60c5\u6b3e\u6b3e
p1207
L1206L
sV\u5206\u9970
p1208
L1207L
sV\u6295\u62cd
p1209
L1208L
sV\u8521\u4f9d\u6797
p1210
L1209L
sV\u5c0f\u5929
p1211
L1210L
sV\u65b0\u9020\u578b
p1212
L1211L
sV\u83ab\u6587\u851a
p1213
L1212L
sV\u6d77\u98de\u4e1d
p1214
L1213L
sV\u77ed\u7247\u5956
p1215
L1214L
sV\u4e8e\u5c14\u6839
p1216
L1215L
sV\u5973\u4e00\u53f7
p1217
L1216L
sV\u5f20\u9759\u521d
p1218
L1217L
sV\u5f55\u97f3\u5e08
p1219
L1218L
sV\u7535\u5f71\u9891\u9053
p1220
L1219L
sV\u5f3a\u70c8\u5efa\u8bae
p1221
L1220L
sV\u94a2\u7ba1\u821e
p1222
L1221L
sV\u65f6\u88c5\u54c1\u724c
p1223
L1222L
sV\u5f20\u5bb6\u8f89
p1224
L1223L
sV\u5218\u70e8
p1225
L1224L
sV\u6b64\u7247
p1226
L1225L
sV\u4e2d\u5468
p1227
L1226L
sV\u51fa\u5c3d
p1228
L1227L
sV\u73b0\u573a\u611f
p1229
L1228L
sV\u70ed\u88e4
p1230
L1229L
sV\u738b\u6587\u6770
p1231
L1230L
sV\u63a5\u6f14
p1232
L1231L
sV\u620f\u670d
p1233
L1232L
sV\u6f14\u5458\u9635\u5bb9
p1234
L1233L
sV\u4e24\u5cb8\u4e09\u5730
p1235
L1234L
sV\u6768\u83b2\u6d01
p1236
L1235L
sV\u8fd4\u6e2f
p1237
L1236L
sV\u884c\u8fdb\u8def\u7ebf
p1238
L1237L
sV\u6700\u50cf
p1239
L1238L
sV\u88ab\u5220
p1240
L1239L
sV\u4fe1\u62a5\u8baf
p1241
L1240L
sV\u620f\u4efd
p1242
L1241L
sV\u94dc\u9523\u6e7e
p1243
L1242L
sV\u7535\u5f71\u5708
p1244
L1243L
sV\u4e94\u516d\u540d
p1245
L1244L
sV\u8d3e\u5e73\u51f9
p1246
L1245L
sV\u661f\u7693
p1247
L1246L
sV\u6797\u8d85\u8d24
p1248
L1247L
sV\u7b49\u5956\u9879
p1249
L1248L
sV\u51b3\u9009
p1250
L1249L
sV\u611a\u4eba\u8282
p1251
L1250L
sV\u5e26\u591f
p1252
L1251L
sV\u7537\u914d\u89d2
p1253
L1252L
sV\u5f71\u534f
p1254
L1253L
sV\u4e09\u5927
p1255
L1254L
sV\u81ea\u7559
p1256
L1255L
sV\u559c\u5267\u7535\u5f71
p1257
L1256L
sV\u5218\u4ea6\u83f2
p1258
L1257L
sV\u9732\u80cc
p1259
L1258L
sV\u7eb5\u6df1\u611f
p1260
L1259L
sV\u6211\u6f14
p1261
L1260L
sV\u5317\u4eac\u5c55\u89c8\u9986
p1262
L1261L
sV\u6587\u827a\u665a\u4f1a
p1263
L1262L
sV\u62bd\u65f6\u95f4
p1264
L1263L
sV\u706f\u5149\u6548\u679c
p1265
L1264L
sV\u5b5f\u5c0f\u51ac
p1266
L1265L
sV\u620f\u8bf4
p1267
L1266L
sV\u5b66\u6709\u6240\u6210
p1268
L1267L
sV\u4f53\u80b2\u660e\u661f
p1269
L1268L
sV\u65af\u7434\u9ad8\u5a03
p1270
L1269L
sV\u751f\u8fd8\u8005
p1271
L1270L
sV\u4eb2\u70ed\u620f
p1272
L1271L
sV\u6a0a\u5c11\u7687
p1273
L1272L
sV\u65f6\u88c5\u7247
p1274
L1273L
sV\u7537\u513f\u672c\u8272
p1275
L1274L
sV\u5927\u7231
p1276
L1275L
sV\u7530\u534e
p1277
L1276L
sV\u6797\u51e4\u5a07
p1278
L1277L
sV\u52df\u6b3e
p1279
L1278L
sV\u6c11\u8fdb\u515a
p1280
L1279L
sV\u8881\u6cc9
p1281
L1280L
sV\u5f81\u5a5a\u542f\u4e8b
p1282
L1281L
sV\u7206\u7b11
p1283
L1282L
sV\u7ba1\u6866
p1284
L1283L
sV\u90d1\u4f0a\u5065
p1285
L1284L
sV\u5165\u7980
p1286
L1285L
sV\u4e09\u5341\u5468\u5e74
p1287
L1286L
sV\u738b\u4e3a\u6c11
p1288
L1287L
sV\u9ec4\u5955
p1289
L1288L
sV\u7b51\u68a6
p1290
L1289L
sV\u7275\u7eca
p1291
L1290L
sV\u547c\u53eb\u8f6c\u79fb
p1292
L1291L
sV\u5b9d\u5200\u672a\u8001
p1293
L1292L
sV\u7231\u5f92
p1294
L1293L
sV\u6bcf\u4e00\u523b
p1295
L1294L
sV\u65b0\u4eba\u5956
p1296
L1295L
sV\u9ed1\u76ae
p1297
L1296L
sV\u9093\u8d85
p1298
L1297L
sV\u70b9\u6b64
p1299
L1298L
sV\u5996\u5973
p1300
L1299L
sV\u6027\u683c\u5916\u5411
p1301
L1300L
sV\u9b54\u754c
p1302
L1301L
sV\u51fa\u54c1\u4eba
p1303
L1302L
sV\u7535\u5f71\u8ff7
p1304
L1303L
sV\u4ea7\u54c1\u63a8\u4ecb
p1305
L1304L
sV\u6768\u8d85
p1306
L1305L
sV\u5317\u5e7f
p1307
L1306L
sV\u4f0a\u838e\u8d1d\u5c14
p1308
L1307L
sV\u51fa\u8f66\u7978
p1309
L1308L
sV\u5220\u51cf
p1310
L1309L
sV\u91d1\u72ee\u5956
p1311
L1310L
sV\u5566\u5566\u961f
p1312
L1311L
sV\u675c\u857e\u601d
p1313
L1312L
sV\u7f8e\u4e9a
p1314
L1313L
sV\u53d8\u5f62\u91d1\u521a
p1315
L1314L
sV\u6491\u573a
p1316
L1315L
sV\u9001\u795d\u798f
p1317
L1316L
sV\u65e5\u7c4d
p1318
L1317L
sV\u4f4e\u80f8
p1319
L1318L
sV\u6295\u7f18
p1320
L1319L
sV\u857e\u4e1d
p1321
L1320L
sV\u592a\u5408
p1322
L1321L
sV\u51c6\u5047
p1323
L1322L
sV\u8001\u5c11\u7686\u5b9c
p1324
L1323L
sV\u6881\u548f\u742a
p1325
L1324L
sV\u6f14\u827a\u4e8b\u4e1a
p1326
L1325L
sV\u6b66\u4fa0\u7247
p1327
L1326L
sV\u60a0\u54c9
p1328
L1327L
sV\u5ba3\u4f20\u518c
p1329
L1328L
sV\u8499\u773c
p1330
L1329L
sV\u6211\u89c1\u72b9\u601c
p1331
L1330L
sV\u5b59\u4fea
p1332
L1331L
sV\u90fd\u5e02\u7537\u5973
p1333
L1332L
sV\u7535\u5f71\u6d77\u62a5
p1334
L1333L
sV\u4f73\u4f73
p1335
L1334L
sV\u56fd\u5bb6\u5927\u5267\u9662
p1336
L1335L
sV\u963f\u8bfa
p1337
L1336L
sV\u7533\u5965
p1338
L1337L
sV\u620f\u91cc
p1339
L1338L
sV\u8d34\u94b1
p1340
L1339L
sV\u5b59\u6167
p1341
L1340L
sV\u4f34\u7740
p1342
L1341L
sV\u5343\u9762
p1343
L1342L
sV\u6e7e\u4ed4
p1344
L1343L
sV\u5927\u5e08\u7ea7
p1345
L1344L
sV\u5e94\u4ed8\u81ea\u5982
p1346
L1345L
sV\u53f6\u95ee
p1347
L1346L
sV\u8868\u91cc\u4e0d\u4e00
p1348
L1347L
sV\u957f\u6b3e
p1349
L1348L
sV\u6587\u5316\u5dee\u5f02
p1350
L1349L
sV\u5b66\u6210\u5f52\u6765
p1351
L1350L
sV\u957f\u9014\u98de\u884c
p1352
L1351L
sV\u6f14\u6280\u6d3e
p1353
L1352L
sV\u6562\u7231\u6562\u6068
p1354
L1353L
sV\u8457\u540d\u54c1\u724c
p1355
L1354L
sV\u83b7\u9881
p1356
L1355L
sV\u9ec4\u91d1\u6863
p1357
L1356L
sV\u540c\u573a
p1358
L1357L
sV\u4e00\u70ae\u800c\u7ea2
p1359
L1358L
sV\u8ba2\u5a5a\u6212\u6307
p1360
L1359L
sV\u7eb1\u8d28
p1361
L1360L
sV\u4efb\u8fbe\u534e
p1362
L1361L
sV\u586b\u7b54
p1363
L1362L
sV\u4e2d\u56fd\u9752\u5e74\u62a5
p1364
L1363L
sV\u6444\u5f71\u827a\u672f
p1365
L1364L
sV\u770b\u7247
p1366
L1365L
sV\u9a6c\u82f1\u4e5d
p1367
L1366L
sV\u83dc\u9e1f
p1368
L1367L
sV\u4e71\u5199
p1369
L1368L
sV\u8881\u548c\u5e73
p1370
L1369L
sV\u8bb8\u5fd7\u5b89
p1371
L1370L
sV\u5766\u9732
p1372
L1371L
sV\u4eac\u5473
p1373
L1372L
sV\u5c24\u52c7
p1374
L1373L
sV\u674e\u5927\u9f50
p1375
L1374L
sV\u5341\u591a\u4f4d
p1376
L1375L
sV\u70ed\u821e
p1377
L1376L
sV\u5a5a\u6212
p1378
L1377L
sV\u5bcc\u5bb6\u5973
p1379
L1378L
sV\u6587\u5e76
p1380
L1379L
sV\u5f90\u9759\u857e
p1381
L1380L
sV\u65f6\u8d77
p1382
L1381L
sV\u65b0\u6d6a\u7f51
p1383
L1382L
sV\u7537\u660e\u661f
p1384
L1383L
sV\u523a\u9752
p1385
L1384L
sV\u5ed6\u51e1
p1386
L1385L
sV\u674e\u9752
p1387
L1386L
sV\u51a0\u738b
p1388
L1387L
sV\u5f20\u6db5\u4e88
p1389
L1388L
sV\u5f20\u7968
p1390
L1389L
sV\u6bd2\u8d29
p1391
L1390L
sV\u91d1\u9633
p1392
L1391L
sV\u9619\u5982
p1393
L1392L
sV\u70c8\u65e5\u5f53\u7a7a
p1394
L1393L
sV\u5999\u8bed\u8fde\u73e0
p1395
L1394L
sV\u62c9\u7968
p1396
L1395L
sV\u949f\u6b63
p1397
L1396L
sV\u54ea\u90e8
p1398
L1397L
sV\u8273\u661f
p1399
L1398L
sV\u751f\u65e5\u6d3e\u5bf9
p1400
L1399L
sV\u751f\u65e5\u6b4c
p1401
L1400L
sV\u751c\u871c\u871c
p1402
L1401L
sV\u6881\u6d1b\u65bd
p1403
L1402L
sV\u7ea2\u6bef
p1404
L1403L
sV\u6570\u7801\u6280\u672f
p1405
L1404L
sV\u5f71\u89c6\u57ce
p1406
L1405L
sV\u9648\u6c34\u6241
p1407
L1406L
sV\u63a5\u53d7\u5ea6
p1408
L1407L
sV\u674e\u5c0f\u5189
p1409
L1408L
sV\u7b2c\u516d\u53f7
p1410
L1409L
sV\u5047\u6b7b
p1411
L1410L
sV\u653f\u5546
p1412
L1411L
sV\u9910\u4f1a
p1413
L1412L
sV\u9009\u5728
p1414
L1413L
sV\u731b\u7537
p1415
L1414L
sV\u5355\u4eb2
p1416
L1415L
sV\u63a2\u73ed
p1417
L1416L
sV\u544a\u767d
p1418
L1417L
sV\u5927\u5356
p1419
L1418L
sV\u9884\u544a\u7247
p1420
L1419L
sV\u653e\u6620\u5385
p1421
L1420L
sV\u6392\u957f\u961f
p1422
L1421L
sV\u65b0\u4eba\u738b
p1423
L1422L
sV\u65b0\u5ba0\u513f
p1424
L1423L
sV\u4e0d\u611f
p1425
L1424L
sV\u59ae\u53ef
p1426
L1425L
sV\u97e9\u7f8e
p1427
L1426L
sV\u5b8b\u6167\u4e54
p1428
L1427L
sV\u5f20\u5143
p1429
L1428L
sV\u91dc\u5c71
p1430
L1429L
sV\u6d45\u6c34\u6e7e
p1431
L1430L
sV\u9505\u76d6\u5934
p1432
L1431L
sV\u96c6\u9526
p1433
L1432L
sV\u559c\u60a6\u4e4b\u60c5
p1434
L1433L
sV\u5b59\u6960
p1435
L1434L
sV\u751f\u6b7b\u604b
p1436
L1435L
sV\u4e3b\u9898\u6b4c
p1437
L1436L
sV\u539f\u97f3
p1438
L1437L
sV\u95fd\u5357\u8bed
p1439
L1438L
sV\u5355\u8eab\u751f\u6d3b
p1440
L1439L
sV\u5f00\u5e55\u5178\u793c
p1441
L1440L
sV\u672c\u5267
p1442
L1441L
sV\u5f88\u9177
p1443
L1442L
sV\u6447\u6eda\u6b4c\u624b
p1444
L1443L
sV\u4e56\u4e56\u5973
p1445
L1444L
sV\u5973\u8b66
p1446
L1445L
sV\u6539\u826f\u7248
p1447
L1446L
sV\u683c\u6e29
p1448
L1447L
sV\u4e00\u767e\u4e07\u5143
p1449
L1448L
sV\u95fb\u98ce\u800c\u81f3
p1450
L1449L
sV\u987e\u957f\u536b
p1451
L1450L
sV\u914d\u886c
p1452
L1451L
sV\u82b1\u5de7
p1453
L1452L
sV\u6d74\u7f38
p1454
L1453L
sV\u6843\u8272
p1455
L1454L
sV\u8bb0\u8005\u4f1a
p1456
L1455L
sV\u9996\u5468
p1457
L1456L
sV\u6731\u5ef6\u5e73
p1458
L1457L
sV\u4f9d\u5faa
p1459
L1458L
sV\u5c0f\u67ef
p1460
L1459L
sV\u59d0\u5f1f\u604b
p1461
L1460L
sV\u8bb8\u6587\u5f3a
p1462
L1461L
sV\u96be\u63a9
p1463
L1462L
sV\u547c\u58f0\u751a\u9ad8
p1464
L1463L
sV\u767d\u96ea\u516c\u4e3b
p1465
L1464L
sV\u4f9b\u56fe
p1466
L1465L
sV\u6293\u4f24
p1467
L1466L
sV\u5fc3\u8def\u5386\u7a0b
p1468
L1467L
sV\u6218\u8b66
p1469
L1468L
sV\u5b89\u5168\u533a
p1470
L1469L
sV\u88f8\u8eab
p1471
L1470L
sV\u6b66\u6307
p1472
L1471L
sV\u4f1a\u5426
p1473
L1472L
sV\u5fd7\u4f1f
p1474
L1473L
sV\u514b\u96f7\u683c
p1475
L1474L
sV\u53cd\u65b9
p1476
L1475L
sV\u540d\u535a
p1477
L1476L
sV\u626e\u9b3c
p1478
L1477L
sV\u6252\u7a83
p1479
L1478L
sV\u636e\u95fb
p1480
L1479L
sV\u65c5\u884c\u7bb1
p1481
L1480L
sV\u6350\u6b3e\u6350\u7269
p1482
L1481L
sV\u4e89\u8273
p1483
L1482L
sV\u53d8\u6027\u4eba
p1484
L1483L
sV\u586b\u8865\u7a7a\u767d
p1485
L1484L
sV\u72e0\u62db
p1486
L1485L
sV\u6076\u8865
p1487
L1486L
sV\u7ecf\u5178\u5f71\u7247
p1488
L1487L
sV\u670d\u88c5\u79c0
p1489
L1488L
sV\u7530\u539f
p1490
L1489L
sV\u6536\u4ef6\u4eba
p1491
L1490L
sV\u865a\u5fc3\u5b66\u4e60
p1492
L1491L
sV\u672c\u6b3e
p1493
L1492L
sV\u5f20\u67cf\u829d
p1494
L1493L
sV\u6469\u5929\u8f6e
p1495
L1494L
sV\u8fc7\u8fc7\u763e
p1496
L1495L
sV\u897f\u95e8\u753a
p1497
L1496L
sV\u7f6e\u88c5
p1498
L1497L
sV\u8bd5\u8863
p1499
L1498L
sV\u738b\u9ece
p1500
L1499L
sV\u96f7\u4eba
p1501
L1500L
sV\u540c\u8272\u7cfb
p1502
L1501L
sV\u672a\u5a5a\u5148\u5b55
p1503
L1502L
sV\u6c14\u573a
p1504
L1503L
sV\u7ecf\u5178\u7535\u5f71
p1505
L1504L
sV\u7ec8\u8eab\u4f34\u4fa3
p1506
L1505L
sV\u53e4\u5de8\u57fa
p1507
L1506L
sV\u4f1a\u52a0
p1508
L1507L
sV\u9ec4\u767e\u9e23
p1509
L1508L
sV\u593a\u5b9d
p1510
L1509L
sV\u519c\u5386\u5e74
p1511
L1510L
sV\u641e\u602a
p1512
L1511L
sV\u79d1\u5e7b\u7247
p1513
L1512L
sV\u804c\u4e1a\u88c5
p1514
L1513L
sV\u5973\u8ffd\u7537
p1515
L1514L
sV\u6b32\u671b\u90fd\u5e02
p1516
L1515L
sV\u62dc\u91d1\u5973
p1517
L1516L
sV\u5927\u8155\u513f
p1518
L1517L
sV\u62a2\u9c9c
p1519
L1518L
sV\u5bbd\u5bb9\u5ea6
p1520
L1519L
sV\u91ce\u86ee\u5973\u53cb
p1521
L1520L
sV\u6ee1\u662f
p1522
L1521L
sV\u5171\u540c\u8fdb\u6b65
p1523
L1522L
sV\u5218\u4f1f\u5f3a
p1524
L1523L
sV\u4e00\u6574
p1525
L1524L
sV\u8d38\u7136\u884c\u4e8b
p1526
L1525L
sV\u5ead\u5916\u548c\u89e3
p1527
L1526L
sV\u539f\u88ab\u544a
p1528
L1527L
sV\u8981\u5b66
p1529
L1528L
sV\u7f8e\u817f
p1530
L1529L
sV\u6210\u65b0
p1531
L1530L
sV\u94bb\u725b\u89d2\u5c16
p1532
L1531L
sV\u7535\u73a9
p1533
L1532L
sV\u79f0\u8be5
p1534
L1533L
sV\u8dcc\u81f3
p1535
L1534L
sV\u6709\u592a\u591a
p1536
L1535L
sV\u5927\u70ed
p1537
L1536L
sV\u6218\u8863
p1538
L1537L
sV\u540c\u6863
p1539
L1538L
sV\u9996\u6620\u793c
p1540
L1539L
sV\u70ed\u8bae
p1541
L1540L
sV\u5927\u8bdd\u897f\u6e38
p1542
L1541L
sV\u7537\u4eba\u5a46
p1543
L1542L
sV\u7c97\u53e3
p1544
L1543L
sV\u8131\u53e3\u79c0
p1545
L1544L
sV\u6709\u4f4d
p1546
L1545L
sV\u6027\u5de5\u4f5c\u8005
p1547
L1546L
sV\u4f4e\u9f84
p1548
L1547L
sV\u53d1\u6625
p1549
L1548L
sV\u9ec4\u658c
p1550
L1549L
sV\u51af\u8fdc\u5f81
p1551
L1550L
sV\u8df3\u8f6c
p1552
L1551L
sV\u62e5\u543b
p1553
L1552L
sV\u5468\u5f3a
p1554
L1553L
sV\u7acb\u59d4
p1555
L1554L
sV\u6e2f\u5f0f
p1556
L1555L
sV\u7b54\u8c22\u4f1a
p1557
L1556L
sV\u89c6\u7f51
p1558
L1557L
sV\u4e07\u96f6
p1559
L1558L
sV\u6797\u5c0f\u59d0
p1560
L1559L
sV\u7389\u817f
p1561
L1560L
sV\u7535\u5f71\u57ce
p1562
L1561L
sV\u7565\u80dc
p1563
L1562L
sV\u597d\u70e6
p1564
L1563L
sV\u79d1\u5e7b\u7535\u5f71
p1565
L1564L
sV\u5927\u59d0\u5927
p1566
L1565L
sV\u603b\u76d1\u5236
p1567
L1566L
sV\u56fd\u52a1\u9662\u53f0\u6e7e\u4e8b\u52a1\u529e\u516c\u5ba4
p1568
L1567L
sV\u674e\u7ef4\u4e00
p1569
L1568L
sV\u8054\u5408\u62a5
p1570
L1569L
sV\u7f8e\u56fd\u5927\u4f7f\u9986
p1571
L1570L
sV\u95f7\u9a9a
p1572
L1571L
sV\u795d\u798f\u8bed
p1573
L1572L
sV\u6a58\u8272
p1574
L1573L
sV\u5bb6\u5ead\u578b
p1575
L1574L
sV\u7ecf\u5178\u53f0\u8bcd
p1576
L1575L
sV\u5d14\u5065
p1577
L1576L
sV\u674e\u6cc9
p1578
L1577L
sV\u4e00\u680b\u680b
p1579
L1578L
sV\u6bcf\u5468\u4e09
p1580
L1579L
sV\u751f\u65e5\u5feb\u4e50
p1581
L1580L
sV\u8ba8\u516c\u9053
p1582
L1581L
sV\u673a\u4e3b
p1583
L1582L
sV\u5929\u6765
p1584
L1583L
sV\u4e00\u4f17
p1585
L1584L
sV\u8e0a\u8dc3\u62a5\u540d
p1586
L1585L
sV\u89c6\u9891\u77ed\u7247
p1587
L1586L
sV\u4e0a\u4ee5
p1588
L1587L
sV\u987e\u95ee\u8d39
p1589
L1588L
sV\u4ea7\u751f\u8bef\u4f1a
p1590
L1589L
sV\u789f\u7247
p1591
L1590L
sV\u793a\u7231
p1592
L1591L
sV\u4eba\u6587\u7cbe\u795e
p1593
L1592L
sV\u65e5\u4e3a
p1594
L1593L
sV\u70ed\u6620
p1595
L1594L
sV\u5f20\u4e30\u6bc5
p1596
L1595L
sV\u745e\u6069
p1597
L1596L
sV\u6280\u672f\u5316
p1598
L1597L
sV\u53d1\u578b\u5e08
p1599
L1598L
sV\u540e\u73b0\u4ee3
p1600
L1599L
sV\u4e2d\u662f
p1601
L1600L
sV\u767e\u5206\u5236
p1602
L1601L
sV\u78d5\u5df4
p1603
L1602L
sV\u822a\u62cd
p1604
L1603L
sV\u8ff7\u5012
p1605
L1604L
sV\u738b\u743c
p1606
L1605L
sV\u6cbb\u7597\u5e08
p1607
L1606L
sV\u62fe\u8352\u8005
p1608
L1607L
sV\u8def\u4eba\u7532
p1609
L1608L
sV\u777d\u8fdd
p1610
L1609L
sV\u767e\u770b\u4e0d\u538c
p1611
L1610L
sV\u603b\u7f16\u5ba4
p1612
L1611L
sV\u8096\u50cf\u6743
p1613
L1612L
sV\u684c\u7403
p1614
L1613L
sV\u821e\u6797
p1615
L1614L
sV\u53cd\u7a83\u542c
p1616
L1615L
sV\u4ee4\u4eba\u540c\u60c5
p1617
L1616L
sV\u76d0\u6e56\u57ce
p1618
L1617L
sV\u4e09\u4ebf
p1619
L1618L
sV\u7ae5\u8da3
p1620
L1619L
sV\u817b\u5b50
p1621
L1620L
sV\u4e3e\u529e\u65b9
p1622
L1621L
sV\u5927\u89c6\u91ce
p1623
L1622L
sV\u6696\u8272\u8c03
p1624
L1623L
sV\u540a\u9876
p1625
L1624L
sV\u51b7\u8272\u8c03
p1626
L1625L
sV\u90fd\u5e02\u7530\u56ed
p1627
L1626L
sV\u788e\u82b1
p1628
L1627L
sV\u4e2d\u897f\u5408\u74a7
p1629
L1628L
sV\u89c2\u666f\u53f0
p1630
L1629L
sV\u5e18\u5934
p1631
L1630L
sV\u77e5\u6027
p1632
L1631L
sV\u82b1\u827a
p1633
L1632L
sV\u82b1\u8bed
p1634
L1633L
sV\u4e4b\u7f8e
p1635
L1634L
sV\u706f\u9970
p1636
L1635L
sV\u91d1\u5c5e\u8272
p1637
L1636L
sV\u6df1\u8272
p1638
L1637L
sV\u5e73\u65b9\u82f1\u5c3a
p1639
L1638L
sV\u514b\u9c81\u65af
p1640
L1639L
sV\u4e07\u7f8e\u91d1
p1641
L1640L
sV\u7f51\u7403\u573a
p1642
L1641L
sV\u8fd0\u52bf
p1643
L1642L
sV\u5bb6\u5c45\u98ce\u6c34
p1644
L1643L
sV\u9080\u53bb
p1645
L1644L
sV\u7ecf\u5546\u8005
p1646
L1645L
sV\u5982\u68a6\u5982\u5e7b
p1647
L1646L
sV\u751f\u6d3b\u6001\u5ea6
p1648
L1647L
sV\u8d85\u51e1
p1649
L1648L
sV\u706f\u5177
p1650
L1649L
sV\u7b80\u7ea6
p1651
L1650L
sV\u6d82\u9e26
p1652
L1651L
sV\u6e05\u5a49
p1653
L1652L
sV\u5370\u82b1
p1654
L1653L
sV\u9910\u5177
p1655
L1654L
sV\u7279\u8d28
p1656
L1655L
sV\u684c\u811a
p1657
L1656L
sV\u706f\u7f69
p1658
L1657L
sV\u7a97\u53f0
p1659
L1658L
sV\u8bbe\u8ba1\u5e08
p1660
L1659L
sV\u6742\u4e71
p1661
L1660L
sV\u67d4\u7f8e
p1662
L1661L
sV\u4e2a\u6027\u5316
p1663
L1662L
sV\u9a6c\u8d5b\u514b
p1664
L1663L
sV\u5730\u706f
p1665
L1664L
sV\u5899\u7eb8
p1666
L1665L
sV\u5bb6\u9970
p1667
L1666L
sV\u56fd\u9645\u5c55\u89c8\u4e2d\u5fc3
p1668
L1667L
sV\u5c55\u4e0a
p1669
L1668L
sV\u5c55\u5c06
p1670
L1669L
sV\u9760\u57ab
p1671
L1670L
sV\u9762\u6599
p1672
L1671L
sV\u6cd5\u5f0f
p1673
L1672L
sV\u5feb\u62a5
p1674
L1673L
sV\u56fe\u4e3a
p1675
L1674L
sV\u7c73\u5170
p1676
L1675L
sV\u81ea\u7531\u7ec4\u5408
p1677
L1676L
sV\u53e4\u5178\u98ce\u683c
p1678
L1677L
sV\u5750\u57ab
p1679
L1678L
sV\u4e4b\u7269
p1680
L1679L
sV\u5de5\u4f5c\u5ba4
p1681
L1680L
sV\u521b\u610f
p1682
L1681L
sV\u8bbe\u8ba1
p1683
L1682L
sV\u6d41\u884c\u98ce
p1684
L1683L
sV\u82cf\u5dde\u56ed\u6797
p1685
L1684L
sV\u7ef4\u62c9
p1686
L1685L
sV\u9ebb\u96c0\u867d\u5c0f
p1687
L1686L
sV\u4e94\u810f\u4ff1\u5168
p1688
L1687L
sV\u5c0f\u5bb6
p1689
L1688L
sV\u513f\u7ae5\u623f
p1690
L1689L
sV\u6536\u7eb3
p1691
L1690L
sV\u5bb6\u88c5
p1692
L1691L
sV\u697c\u4e2d\u697c
p1693
L1692L
sV\u697c\u68af\u6276\u624b
p1694
L1693L
sV\u753b\u6846
p1695
L1694L
sV\u6e9c\u8fdb\u6765
p1696
L1695L
sV\u8bf7\u5750\u4e0b\u6765
p1697
L1696L
sV\u5439\u52a8
p1698
L1697L
sV\u6c89\u9189
p1699
L1698L
sV\u5bf9\u5bb6
p1700
L1699L
sV\u7efd\u653e
p1701
L1700L
sV\u6d01\u5177
p1702
L1701L
sV\u5185\u5899
p1703
L1702L
sV\u5c18\u70df
p1704
L1703L
sV\u5a5a\u623f
p1705
L1704L
sV\u69bb\u69bb\u7c73
p1706
L1705L
sV\u9910\u684c\u6905
p1707
L1706L
sV\u5c45\u5ba4
p1708
L1707L
sV\u820d\u5f03
p1709
L1708L
sV\u6d6a\u6f2b\u6c14\u606f
p1710
L1709L
sV\u60c5\u4eba\u8282
p1711
L1710L
sV\u9970\u54c1
p1712
L1711L
sV\u978b\u67dc
p1713
L1712L
sV\u8fdb\u95e8\u5904
p1714
L1713L
sV\u5b9e\u7528\u529f\u80fd
p1715
L1714L
sV\u7384\u5173
p1716
L1715L
sV\u8863\u5e3d\u95f4
p1717
L1716L
sV\u4e73\u80f6\u6f06
p1718
L1717L
sV\u7ec6\u6761\u7eb9
p1719
L1718L
sV\u5c42\u6b21\u611f
p1720
L1719L
sV\u5bb6\u5c45
p1721
L1720L
sV\u80cc\u666f\u5899
p1722
L1721L
sV\u536b\u6d74\u95f4
p1723
L1722L
sV\u7f8e\u7684
p1724
L1723L
sV\u51e0\u6b3e
p1725
L1724L
sV\u5c0f\u6237\u578b
p1726
L1725L
sV\u7559\u6709
p1727
L1726L
sV\u53a8\u5177
p1728
L1727L
sV\u7c73\u8272
p1729
L1728L
sV\u552f\u7f8e
p1730
L1729L
sV\u6b27\u5f0f
p1731
L1730L
sV\u4e00\u536b
p1732
L1731L
sV\u66f4\u70ed
p1733
L1732L
sV\u6697\u8c03
p1734
L1733L
sV\u800d\u9177
p1735
L1734L
sV\u914d\u642d
p1736
L1735L
sV\u901a\u900f
p1737
L1736L
sV\u843d\u4fd7
p1738
L1737L
sV\u5c0f\u7f16
p1739
L1738L
sV\u4f4e\u8d44
p1740
L1739L
sV\u4e00\u89c1\u503e\u5fc3
p1741
L1740L
sV\u5ba4\u5185\u8bbe\u8ba1
p1742
L1741L
sV\u5bb6\u5c45\u7528\u54c1
p1743
L1742L
sV\u5bb6\u54c1
p1744
L1743L
sV\u4f1a\u7231\u4e0a
p1745
L1744L
sV\u590d\u53e4
p1746
L1745L
sV\u7070\u6697
p1747
L1746L
sV\u65f6\u9ae6
p1748
L1747L
sV\u6e29\u99a8
p1749
L1748L
sV\u539f\u6728
p1750
L1749L
sV\u8863\u67dc
p1751
L1750L
sV\u5ba2\u5385\u5bb6\u5177
p1752
L1751L
sV\u6276\u624b\u6905
p1753
L1752L
sV\u7f8e\u611f
p1754
L1753L
sV\u5361\u901a
p1755
L1754L
sV\u8c03\u60c5
p1756
L1755L
sV\u6446\u653e
p1757
L1756L
sV\u914d\u9970
p1758
L1757L
sV\u914d\u8272
p1759
L1758L
sV\u6cf3\u6c60
p1760
L1759L
sV\u5899\u88d9
p1761
L1760L
sV\u6446\u4ef6
p1762
L1761L
sV\u58c1\u7eb8
p1763
L1762L
sV\u4e0b\u96e8\u5929
p1764
L1763L
sV\u8ff7\u4f60\u88d9
p1765
L1764L
sV\u65b0\u4f53\u9a8c
p1766
L1765L
sV\u9884\u5c55
p1767
L1766L
sV\u5bb6\u5ead\u5f71\u9662
p1768
L1767L
sV\u53e4\u8272\u53e4\u9999
p1769
L1768L
sV\u5bb6\u5c45\u88c5\u9970
p1770
L1769L
sV\u7f51\u4f4f
p1771
L1770L
sV\u5bb6\u5c45\u751f\u6d3b
p1772
L1771L
sV\u7c73\u5e05
p1773
L1772L
sV\u5e74\u6e29
p1774
L1773L
sV\u7279\u6c83\u65af
p1775
L1774L
sV\u6e29\u7279\u6c83\u65af
p1776
L1775L
sV\u65e5\u751f
p1777
L1776L
sV\u7f8e\u8f6e\u7f8e\u5942
p1778
L1777L
sV\u5de5\u4f5c\u574a
p1779
L1778L
sV\u5165\u76ee
p1780
L1779L
sV\u8f9f\u51fa
p1781
L1780L
sV\u5fc3\u5728
p1782
L1781L
sV\u4e3a\u8eab
p1783
L1782L
sV\u7559\u767d
p1784
L1783L
sV\u5076\u7136\u95f4
p1785
L1784L
sV\u611f\u6c89
p1786
L1785L
sV\u9910\u684c
p1787
L1786L
sV\u8272\u8c03
p1788
L1787L
sV\u9910\u5385
p1789
L1788L
sV\u6574\u4f53\u6a71\u67dc
p1790
L1789L
sV\u5427\u53f0
p1791
L1790L
sV\u8c03\u7fb9
p1792
L1791L
sV\u4e4b\u597d
p1793
L1792L
sV\u5b85\u5973
p1794
L1793L
sV\u8f7b\u677e\u81ea\u5728
p1795
L1794L
sV\u70e6\u5fc3
p1796
L1795L
sV\u89c6\u89c9
p1797
L1796L
sV\u89c6\u89c9\u6548\u679c
p1798
L1797L
sV\u6761\u7eb9
p1799
L1798L
sV\u4fe1\u547d
p1800
L1799L
sV\u4e2d\u8d77
p1801
L1800L
sV\u63d0\u4eae
p1802
L1801L
sV\u5e8a\u54c1
p1803
L1802L
sV\u7a7a\u95f4\u611f
p1804
L1803L
sV\u540a\u706f
p1805
L1804L
sV\u9910\u53f0
p1806
L1805L
sV\u6a71\u67dc
p1807
L1806L
sV\u5468\u6770\u4f26
p1808
L1807L
sV\u8be0\u91ca
p1809
L1808L
sV\u523b\u610f
p1810
L1809L
sV\u8336\u51e0
p1811
L1810L
sV\u7eff\u8272\u690d\u7269
p1812
L1811L
sV\u74f7\u7816
p1813
L1812L
sV\u88c5\u70b9
p1814
L1813L
sV\u4eba\u4f1a
p1815
L1814L
sV\u753b\u9f99\u70b9\u775b
p1816
L1815L
sV\u8d35\u6c14
p1817
L1816L
sV\u4e1d\u8d28
p1818
L1817L
sV\u6cb9\u6f06
p1819
L1818L
sV\u4e00\u6b3e
p1820
L1819L
sV\u98ce\u9761
p1821
L1820L
sV\u97e9\u5f0f
p1822
L1821L
sV\u6c99\u53d1\u6905
p1823
L1822L
sV\u522b\u81f4
p1824
L1823L
sV\u4eb5\u73a9
p1825
L1824L
sV\u6de1\u5b9a
p1826
L1825L
sV\u7ea2\u9152
p1827
L1826L
sV\u5730\u677f\u7816
p1828
L1827L
sV\u56de\u5f52\u81ea\u7136
p1829
L1828L
sV\u5305\u5bb9
p1830
L1829L
sV\u73b0\u4ee3\u611f
p1831
L1830L
sV\u91c7\u5149
p1832
L1831L
sV\u8e22\u811a\u7ebf
p1833
L1832L
sV\u4e03\u5f69
p1834
L1833L
sV\u593a\u76ee
p1835
L1834L
sV\u968f\u6027
p1836
L1835L
sV\u5bb6\u5c45\u8bbe\u8ba1
p1837
L1836L
sV\u9633\u5149\u623f
p1838
L1837L
sV\u5899\u753b
p1839
L1838L
sV\u53ef\u6a21\u4eff
p1840
L1839L
sV\u8f6c\u6905
p1841
L1840L
sV\u516b\u4f70\u4f34
p1842
L1841L
sV\u4eae\u8272
p1843
L1842L
sV\u4eff\u65e7
p1844
L1843L
sV\u7c89\u5237
p1845
L1844L
sV\u8212\u9002\u611f
p1846
L1845L
sV\u4e2d\u5f0f
p1847
L1846L
sV\u6276\u68af
p1848
L1847L
sV\u5fc5\u5907
p1849
L1848L
sV\u9887\u5177
p1850
L1849L
sV\u8272\u5757
p1851
L1850L
sV\u6a59\u8272
p1852
L1851L
sV\u7eaf\u7f8e
p1853
L1852L
sV\u7ae5\u8bdd\u822c
p1854
L1853L
sV\u68a6\u5e7b
p1855
L1854L
sV\u5bb6\u5c45\u9970\u54c1
p1856
L1855L
sV\u5367\u5ba4
p1857
L1856L
sV\u5899\u9970
p1858
L1857L
sV\u9910\u6905
p1859
L1858L
sV\u539f\u6728\u8272
p1860
L1859L
sV\u88c5\u9970\u753b
p1861
L1860L
sV\u522b\u5177\u7279\u8272
p1862
L1861L
sV\u6709\u552e
p1863
L1862L
sV\u6709\u578b
p1864
L1863L
sV\u4eca\u5b63
p1865
L1864L
sV\u4f18\u96c5
p1866
L1865L
sV\u79d1\u6797
p1867
L1866L
sV\u6df7\u642d\u98ce
p1868
L1867L
sV\u9884\u4ea4
p1869
L1868L
sV\u4f11\u95f2\u6d3b\u52a8
p1870
L1869L
sV\u5355\u54c1
p1871
L1870L
sV\u8272\u5f69\u8273\u4e3d
p1872
L1871L
sV\u6d53\u4e3d\u5230
p1873
L1872L
sV\u6837\u677f\u95f4
p1874
L1873L
sV\u5b9e\u6728
p1875
L1874L
sV\u606c\u6de1
p1876
L1875L
sV\u97f5\u5473
p1877
L1876L
sV\u94c1\u827a
p1878
L1877L
sV\u4e09\u4eba\u6905
p1879
L1878L
sV\u5f80\u5c4a
p1880
L1879L
sV\u4e1d\u5dfe
p1881
L1880L
sV\u88c1\u526a
p1882
L1881L
sV\u7a97\u5e18
p1883
L1882L
sV\u65b0\u4eae\u70b9
p1884
L1883L
sV\u7115\u53d1
p1885
L1884L
sV\u5bb6\u5c45\u73af\u5883
p1886
L1885L
sV\u5927\u7ea2\u5927\u7d2b
p1887
L1886L
sV\u5ba0\u513f
p1888
L1887L
sV\u522b\u6837
p1889
L1888L
sV\u6781\u81f4
p1890
L1889L
sV\u54c1\u5473
p1891
L1890L
sV\u53e4\u8463\u5e97
p1892
L1891L
sV\u7a7a\u5f00
p1893
L1892L
sV\u5c55\u793a\u533a
p1894
L1893L
sV\u6d3b\u8272\u751f\u9999
p1895
L1894L
sV\u5899\u9762
p1896
L1895L
sV\u62fc\u82b1
p1897
L1896L
sV\u6843\u7ea2\u8272
p1898
L1897L
sV\u9760\u6795
p1899
L1898L
sV\u7eaa\u5ff5\u54c1
p1900
L1899L
sV\u6362\u65b0\u88c5
p1901
L1900L
sV\u60ec\u610f
p1902
L1901L
sV\u7eb8\u8239
p1903
L1902L
sV\u7eaf\u767d
p1904
L1903L
sV\u88c5\u4fee
p1905
L1904L
sV\u6175\u61d2
p1906
L1905L
sV\u672c\u5b63
p1907
L1906L
sV\u6d82\u6210
p1908
L1907L
sV\u8da3\u5473\u6027
p1909
L1908L
sV\u4e3b\u5367
p1910
L1909L
sV\u7f6e\u8eab
p1911
L1910L
sV\u60c5\u8c03
p1912
L1911L
sV\u4e3b\u5367\u5ba4
p1913
L1912L
sV\u536b\u751f\u95f4
p1914
L1913L
sV\u5bbd\u655e
p1915
L1914L
sV\u79c1\u5bc6\u6027
p1916
L1915L
sV\u4e3b\u536b
p1917
L1916L
sV\u4e4b\u9009
p1918
L1917L
sV\u4e54\u6069
p1919
L1918L
sV\u76c6\u683d
p1920
L1919L
sV\u70d8\u6258
p1921
L1920L
sV\u65e7\u5bb6\u5177
p1922
L1921L
sV\u4e3b\u8272\u8c03
p1923
L1922L
sV\u5e03\u827a
p1924
L1923L
sV\u7f8e\u5f0f
p1925
L1924L
sV\u7530\u56ed
p1926
L1925L
sV\u4e61\u6751
p1927
L1926L
sV\u4eff\u82e5
p1928
L1927L
sV\u4f7f\u4eba
p1929
L1928L
sV\u6109\u60a6
p1930
L1929L
sV\u73ab\u7470\u56ed
p1931
L1930L
sV\u4e66\u67dc
p1932
L1931L
sV\u88c5\u9970\u54c1
p1933
L1932L
sV\u6728\u8d28
p1934
L1933L
sV\u906e\u6321
p1935
L1934L
sV\u76f8\u51b2
p1936
L1935L
sV\u4e8c\u4eba\u540c\u5fc3
p1937
L1936L
sV\u6ea2\u6ee1
p1938
L1937L
sV\u5e78\u798f\u611f
p1939
L1938L
sV\u623f\u4e00\u5385
p1940
L1939L
sV\u4e09\u623f\u4e00\u5385
p1941
L1940L
sV\u9633\u53f0
p1942
L1941L
sV\u5976\u6cb9\u8272
p1943
L1942L
sV\u8d22\u6c14
p1944
L1943L
sV\u5361\u7f57\u5c14
p1945
L1944L
sV\u505a\u70b9
p1946
L1945L
sV\u624b\u63d0\u7bb1
p1947
L1946L
sV\u683c\u7eb9
p1948
L1947L
sV\u590d\u5f0f
p1949
L1948L
sV\u8bd7\u822c
p1950
L1949L
sV\u6709\u5bb6
p1951
L1950L
sV\u79c0\u573a
p1952
L1951L
sV\u611f\u5f3a
p1953
L1952L
sV\u6302\u9970
p1954
L1953L
sV\u6401\u67b6
p1955
L1954L
sV\u6052\u4e45\u4e0d\u53d8
p1956
L1955L
sV\u843d\u5730\u706f
p1957
L1956L
sV\u914d\u4ee5
p1958
L1957L
sV\u4e3b\u8c03
p1959
L1958L
sV\u8fd9\u6240
p1960
L1959L
sV\u60a6\u76ee
p1961
L1960L
sV\u6302\u753b
p1962
L1961L
sV\u65e5\u8d77
p1963
L1962L
sV\u90fd\u5e02\u4eba
p1964
L1963L
sV\u5c0f\u5929\u5730
p1965
L1964L
sV\u7ae5\u5fc3
p1966
L1965L
sV\u591a\u5f69
p1967
L1966L
sV\u8425\u5efa
p1968
L1967L
sV\u4e4b\u6c14
p1969
L1968L
sV\u5c31\u9910
p1970
L1969L
sV\u7eaf\u8272
p1971
L1970L
sV\u5730\u6bef
p1972
L1971L
sV\u897f\u7c73\u4e9a
p1973
L1972L
sV\u66f4\u591a\u5730
p1974
L1973L
sV\u521b\u610f\u8bbe\u8ba1
p1975
L1974L
sV\u53e4\u9999\u53e4\u8272
p1976
L1975L
sV\u5929\u7136\u6750\u6599
p1977
L1976L
sV\u4eff\u751f
p1978
L1977L
sV\u6cf0\u5f0f
p1979
L1978L
sV\u7535\u89c6\u5899
p1980
L1979L
sV\u679d\u5f62\u540a\u706f
p1981
L1980L
sV\u5bf9\u6bd4\u8272
p1982
L1981L
sV\u5206\u5206\u79d2\u79d2
p1983
L1982L
sV\u514b\u91cc\u65af\u6258\u592b
p1984
L1983L
sV\u4e3a\u5b9c
p1985
L1984L
sV\u5904\u5973\u5ea7
p1986
L1985L
sV\u6c34\u7535\u4f9b\u5e94
p1987
L1986L
sV\u53cc\u9c7c\u5ea7
p1988
L1987L
sV\u72ee\u5b50\u5ea7
p1989
L1988L
sV\u5929\u874e\u5ea7
p1990
L1989L
sV\u8bf8\u8111
p1991
L1990L
sV\u770b\u538c
p1992
L1991L
sV\u5c0f\u7269
p1993
L1992L
sV\u96f6\u96f6\u788e\u788e
p1994
L1993L
sV\u7f24\u7eb7
p1995
L1994L
sV\u8fd9\u680b
p1996
L1995L
sV\u5e38\u6625\u85e4
p1997
L1996L
sV\u50a8\u7269\u67dc
p1998
L1997L
sV\u770b\u817b
p1999
L1998L
sV\u8272\u7cfb
p2000
L1999L
sV\u80cc\u666f
p2001
L2000L
sV\u51b7\u8272
p2002
L2001L
sV\u7535\u89c6\u67dc
p2003
L2002L
sV\u9676\u74f6
p2004
L2003L
sV\u642d\u6263
p2005
L2004L
sV\u968f\u5176
p2006
L2005L
sV\u91ce\u8349
p2007
L2006L
sV\u718f\u9676
p2008
L2007L
sV\u4eba\u80fd
p2009
L2008L
sV\u9601\u697c
p2010
L2009L
sV\u53ef\u7231
p2011
L2010L
sV\u4e24\u8272
p2012
L2011L
sV\u642d\u914d
p2013
L2012L
sV\u7761\u5e8a
p2014
L2013L
sV\u7814\u543e
p2015
L2014L
sV\u708e\u708e\u590f\u65e5
p2016
L2015L
sV\u9526\u4e0a\u6dfb\u82b1
p2017
L2016L
sV\u516b\u6b3e
p2018
L2017L
sV\u536b\u6d74
p2019
L2018L
sV\u6d74\u5ba4
p2020
L2019L
sV\u95fa\u623f
p2021
L2020L
sV\u6574\u9762
p2022
L2021L
sV\u8fb9\u9970
p2023
L2022L
sV\u6587\u8109
p2024
L2023L
sV\u5174\u8da3\u7231\u597d
p2025
L2024L
sV\u8774\u8776\u7ed3
p2026
L2025L
sV\u5305\u88c5\u7eb8
p2027
L2026L
sV\u697c\u4f53
p2028
L2027L
sV\u51fa\u7231
p2029
L2028L
sV\u94f6\u7070
p2030
L2029L
sV\u5730\u7816
p2031
L2030L
sV\u6bdb\u576f\u623f
p2032
L2031L
sV\u97f3\u54cd\u8bbe\u5907
p2033
L2032L
sV\u5473\u5341\u8db3
p2034
L2033L
sV\u63d2\u5b54
p2035
L2034L
sV\u4e2a\u6027
p2036
L2035L
sV\u65e0\u9650
p2037
L2036L
sV\u60c5\u4fa3
p2038
L2037L
sV\u65b0\u521b\u610f
p2039
L2038L
sV\u7f6e\u7269\u67b6
p2040
L2039L
sV\u53a8\u623f
p2041
L2040L
sV\u6de1\u7d2b\u8272
p2042
L2041L
sV\u7eff\u690d
p2043
L2042L
sV\u518d\u914d
p2044
L2043L
sV\u767d\u8272
p2045
L2044L
sV\u827a\u672f\u8bbe\u8ba1
p2046
L2045L
sV\u9ed1\u4e0e\u767d
p2047
L2046L
sV\u603b\u7edf\u5957\u623f
p2048
L2047L
sV\u6bd4\u90bb
p2049
L2048L
sV\u5e8a\u5934\u67dc
p2050
L2049L
sV\u7a81\u663e\u51fa
p2051
L2050L
sV\u8df3\u86a4\u5e02\u573a
p2052
L2051L
sV\u6574\u7ec4
p2053
L2052L
sV\u67dc\u4f53
p2054
L2053L
sV\u5c0f\u706f
p2055
L2054L
sV\u5c42\u53e0
p2056
L2055L
sV\u751c\u7f8e
p2057
L2056L
sV\u5361\u96f7
p2058
L2057L
sV\u4e00\u7ebf\u54c1\u724c
p2059
L2058L
sV\u9ad8\u7b49\u7ea7
p2060
L2059L
sV\u4e2d\u9ad8\u7ea7
p2061
L2060L
sV\u5bb6\u7528
p2062
L2061L
sV\u8273\u8272
p2063
L2062L
sV\u516c\u5bd3\u5f0f
p2064
L2063L
sV\u8863\u6a71
p2065
L2064L
sV\u751f\u6d3b\u7a7a\u95f4
p2066
L2065L
sV\u6d6a\u6f2b
p2067
L2066L
sV\u5f88\u5408
p2068
L2067L
sV\u8ba9\u4f60\u5728
p2069
L2068L
sV\u6d45\u8272\u7cfb
p2070
L2069L
sV\u5ae9\u9ec4\u8272
p2071
L2070L
sV\u53f0\u706f
p2072
L2071L
sV\u6728\u8272
p2073
L2072L
sV\u5496\u5561\u8272
p2074
L2073L
sV\u5e03\u6599
p2075
L2074L
sV\u800c\u5177
p2076
L2075L
sV\u70b9\u7f00
p2077
L2076L
sV\u522b\u5177
p2078
L2077L
sV\u4e94\u91d1\u4ef6
p2079
L2078L
sV\u8d34\u82b1
p2080
L2079L
sV\u8d22\u8fd0
p2081
L2080L
sV\u72b6\u51b5\u4e0d\u4f73
p2082
L2081L
sV\u6d41\u884c\u8272
p2083
L2082L
sV\u4eba\u4f53\u5de5\u5b66
p2084
L2083L
sV\u4e03\u7c7b
p2085
L2084L
sV\u9694\u677f
p2086
L2085L
sV\u60ca\u8273
p2087
L2086L
sV\u65f6\u5c1a\u754c
p2088
L2087L
sV\u53e4\u5178\u5bb6\u5177
p2089
L2088L
sV\u80e1\u6843\u6728
p2090
L2089L
sV\u4eff\u76ae
p2091
L2090L
sV\u7a7f\u8d8a\u65f6\u7a7a
p2092
L2091L
sV\u53e6\u7c7b
p2093
L2092L
sV\u5c0f\u73a9\u610f
p2094
L2093L
sV\u5b9e\u7528\u6027
p2095
L2094L
sV\u5361\u4f4d
p2096
L2095L
sV\u8212\u9002
p2097
L2096L
sV\u8936\u8fb9
p2098
L2097L
sV\u6d1b\u4e3d\u5854
p2099
L2098L
sV\u7528\u6b64
p2100
L2099L
sV\u65e5\u5f0f
p2101
L2100L
sV\u9676\u827a
p2102
L2101L
sV\u660c\u5e73\u533a
p2103
L2102L
sV\u9b54\u529b
p2104
L2103L
sV\u5e73\u8861\u611f
p2105
L2104L
sV\u60c5\u7ed3
p2106
L2105L
sV\u5f15\u5411
p2107
L2106L
sV\u5c0f\u670b\u53cb
p2108
L2107L
sV\u58c1\u7089
p2109
L2108L
sV\u670d\u9970\u54c1\u724c
p2110
L2109L
sV\u670d\u88c5\u54c1\u724c
p2111
L2110L
sV\u590f\u88c5
p2112
L2111L
sV\u624b\u7ed8
p2113
L2112L
sV\u85e4\u8513
p2114
L2113L
sV\u521d\u89c1\u7aef\u502a
p2115
L2114L
sV\u5feb\u8f66
p2116
L2115L
sV\u7c73\u5f00\u6717\u57fa\u7f57
p2117
L2116L
sV\u526a\u529b\u5899
p2118
L2117L
sV\u627e\u56de
p2119
L2118L
sV\u6a61\u6728
p2120
L2119L
sV\u5ba2\u5385
p2121
L2120L
sV\u67d4\u5316
p2122
L2121L
sV\u6280\u672f\u7c7b
p2123
L2122L
sV\u7f24\u7eb7\u8272\u5f69
p2124
L2123L
sV\u9732\u53f0
p2125
L2124L
sV\u786e\u4fdd\u60a8
p2126
L2125L
sV\u660e\u8273
p2127
L2126L
sV\u58c1\u949f
p2128
L2127L
sV\u9b54\u6cd5\u5e08
p2129
L2128L
sV\u8170\u7ebf
p2130
L2129L
sV\u843d\u5730\u7a97
p2131
L2130L
sV\u8bfb\u8bfb\u4e66
p2132
L2131L
sV\u5c42\u677f
p2133
L2132L
sV\u8fde\u5eca
p2134
L2133L
sV\u65b0\u4e00\u5b63
p2135
L2134L
sV\u6de1\u96c5
p2136
L2135L
sV\u8fd9\u7fa4
p2137
L2136L
sV\u65f6\u80fd
p2138
L2137L
sV\u65f6\u88c5\u754c
p2139
L2138L
sV\u6563\u53d1
p2140
L2139L
sV\u65e0\u6781\u9650
p2141
L2140L
sV\u5929\u82b1\u677f
p2142
L2141L
sV\u547d\u7406
p2143
L2142L
sV\u82b1\u623f
p2144
L2143L
sV\u6469\u7faf\u5ea7
p2145
L2144L
sV\u6f02\u6f02\u4eae\u4eae
p2146
L2145L
sV\u5986\u70b9
p2147
L2146L
sV\u82b1\u4fcf
p2148
L2147L
sV\u671b\u5b50\u6210\u9f99
p2149
L2148L
sV\u6731\u8389
p2150
L2149L
sV\u805a\u5149\u706f
p2151
L2150L
sV\u7b2c\u516d\u611f
p2152
L2151L
sV\u65b0\u65f6\u5c1a
p2153
L2152L
sV\u642d\u8c03
p2154
L2153L
sV\u5b9d\u5b9d
p2155
L2154L
sV\u51c6\u65b0\u5a18
p2156
L2155L
sV\u82e5\u9700
p2157
L2156L
sV\u5c4b\u4e3b
p2158
L2157L
sV\u65b0\u5ba0
p2159
L2158L
sV\u8d85\u9177
p2160
L2159L
sV\u67f4\u7c73\u6cb9\u76d0
p2161
L2160L
sV\u6570\u7801\u79d1\u6280
p2162
L2161L
sV\u901f\u98df
p2163
L2162L
sV\u5976\u7cbe
p2164
L2163L
sV\u5e78\u8fd0\u4e4b\u795e
p2165
L2164L
sV\u6c34\u74f6\u5ea7
p2166
L2165L
sV\u6d4b\u8c0e
p2167
L2166L
sV\u8db3\u5f69
p2168
L2167L
sV\u610f\u897f
p2169
L2168L
sV\u8db3\u7403\u5f69\u7968
p2170
L2169L
sV\u8fdb\u7403\u5f69
p2171
L2170L
sV\u5168\u7b80
p2172
L2171L
sV\u961f\u540d
p2173
L2172L
sV\u80dc\u8d1f\u5f69
p2174
L2173L
sV\u4f24\u505c
p2175
L2174L
sV\u84dd\u7403
p2176
L2175L
sV\u8f6c\u70ed
p2177
L2176L
sV\u56de\u8865
p2178
L2177L
sV\u5956\u53f7
p2179
L2178L
sV\u6bcf\u6ce8
p2180
L2179L
sV\u7ade\u731c
p2181
L2180L
sV\u5934\u5956
p2182
L2181L
sV\u51fa\u53f7
p2183
L2182L
sV\u4e3b\u770b
p2184
L2183L
sV\u5355\u9009
p2185
L2184L
sV\u9632\u51b7
p2186
L2185L
sV\u8d6b\u5c14\u57ce
p2187
L2186L
sV\u65a7\u5934\u5e2e
p2188
L2187L
sV\u6851\u5fb7\u5170
p2189
L2188L
sV\u4eca\u671f
p2190
L2189L
sV\u672c\u7279\u5229
p2191
L2190L
sV\u9a6c\u4e01\u65af
p2192
L2191L
sV\u4e0b\u671f
p2193
L2192L
sV\u6eda\u5b58
p2194
L2193L
sV\u5f00\u5956
p2195
L2194L
sV\u4e00\u7b49\u5956
p2196
L2195L
sV\u6bd4\u5229\u65f6\u961f
p2197
L2196L
sV\u62c9\u7ef4\u4e9a
p2198
L2197L
sV\u7a46\u56fe
p2199
L2198L
sV\u5355\u6ce8
p2200
L2199L
sV\u64c2\u53f0\u8d5b
p2201
L2200L
sV\u9a6c\u5c14\u8482\u5c3c
p2202
L2201L
sV\u8db3\u603b\u676f
p2203
L2202L
sV\u603b\u6c47
p2204
L2203L
sV\u53ea\u5f00\u51fa
p2205
L2204L
sV\u5947\u5076
p2206
L2205L
sV\u65ad\u51fa
p2207
L2206L
sV\u4f50\u62c9
p2208
L2207L
sV\u8fb9\u950b
p2209
L2208L
sV\u573a\u534a
p2210
L2209L
sV\u83b1\u5207
p2211
L2210L
sV\u4e4c\u8fea\u5185
p2212
L2211L
sV\u516b\u573a
p2213
L2212L
sV\u9521\u8036\u7eb3
p2214
L2213L
sV\u5207\u6c83
p2215
L2214L
sV\u4e9a\u7279\u5170
p2216
L2215L
sV\u5361\u5229\u4e9a
p2217
L2216L
sV\u8fea\u74e6
p2218
L2217L
sV\u6851\u666e\u591a\u5229\u4e9a\u961f
p2219
L2218L
sV\u7687\u5bb6\u9a6c\u5fb7\u91cc\u961f
p2220
L2219L
sV\u4e00\u6ce8
p2221
L2220L
sV\u5f53\u671f
p2222
L2221L
sV\u62c9\u6d85
p2223
L2222L
sV\u53cc\u5f69\u7f51
p2224
L2223L
sV\u8ba9\u73a9\u5bb6
p2225
L2224L
sV\u671f\u5f69\u679c
p2226
L2225L
sV\u9500\u552e\u91cf
p2227
L2226L
sV\u96be\u52a9
p2228
L2227L
sV\u963f\u68ee\u7eb3
p2229
L2228L
sV\u5f69\u679c
p2230
L2229L
sV\u544a\u8d1f
p2231
L2230L
sV\u9500\u91cf
p2232
L2231L
sV\u535a\u91cc
p2233
L2232L
sV\u5207\u5c3c
p2234
L2233L
sV\u4f69\u4f69
p2235
L2234L
sV\u963f\u4ec0\u5229
p2236
L2235L
sV\u5e0c\u6d2a
p2237
L2236L
sV\u6c83\u5c14\u592b\u65af\u5821
p2238
L2237L
sV\u4f5c\u5f03
p2239
L2238L
sV\u5409\u62c9\u8fea\u8bfa
p2240
L2239L
sV\u6d45\u76d8
p2241
L2240L
sV\u5e03\u6717\u7ef4\u5947
p2242
L2241L
sV\u7403\u5931
p2243
L2242L
sV\u535a\u5c14\u987f\u961f
p2244
L2243L
sV\u70ed\u523a
p2245
L2244L
sV\u5229\u7269\u6d66
p2246
L2245L
sV\u86cb\u7cd5\u5e97
p2247
L2246L
sV\u578b\u5f69\u7968
p2248
L2247L
sV\u6253\u7968
p2249
L2248L
sV\u5956\u6c60
p2250
L2249L
sV\u4f53\u5f69
p2251
L2250L
sV\u4efb\u9009
p2252
L2251L
sV\u6295\u6ce8
p2253
L2252L
sV\u94c1\u80c6
p2254
L2253L
sV\u52a0\u8d5b
p2255
L2254L
sV\u4e91\u8fbe
p2256
L2255L
sV\u8d62\u9762
p2257
L2256L
sV\u5343\u4f59\u5143
p2258
L2257L
sV\u6885\u514b\u65af
p2259
L2258L
sV\u4e3b\u961f
p2260
L2259L
sV\u5217\u4f5c
p2261
L2260L
sV\u74e6\u4f26
p2262
L2261L
sV\u53d6\u5206
p2263
L2262L
sV\u5229\u7269\u6d66\u961f
p2264
L2263L
sV\u62dc\u4ec1\u6155\u5c3c\u9ed1\u961f
p2265
L2264L
sV\u591a\u5229\u5fb7
p2266
L2265L
sV\u7f57\u9a6c\u961f
p2267
L2266L
sV\u51a0\u519b\u676f
p2268
L2267L
sV\u5927\u5355
p2269
L2268L
sV\u51fa\u5956
p2270
L2269L
sV\u987f\u6d85\u8328\u514b
p2271
L2270L
sV\u5168\u573a
p2272
L2271L
sV\u897f\u514b
p2273
L2272L
sV\u6c83\u5c14\u79d1\u7279
p2274
L2273L
sV\u62dc\u4ec1
p2275
L2274L
sV\u4e3b\u573a
p2276
L2275L
sV\u4f5b\u7f57\u4f26
p2277
L2276L
sV\u5766\u5c3c
p2278
L2277L
sV\u6b27\u6d32\u533a
p2279
L2278L
sV\u4ec5\u6392
p2280
L2279L
sV\u8d6b\u5c14\u59c6\u65af
p2281
L2280L
sV\u52a0\u62c9\u65af
p2282
L2281L
sV\u7f57\u9a6c\u5c3c
p2283
L2282L
sV\u5956\u91d1\u989d
p2284
L2283L
sV\u5927\u6d3e
p2285
L2284L
sV\u52a0\u5956
p2286
L2285L
sV\u6d3e\u5956
p2287
L2286L
sV\u5f69\u5e02
p2288
L2287L
sV\u6cd5\u7f57
p2289
L2288L
sV\u7a33\u80c6
p2290
L2289L
sV\u5355\u671f
p2291
L2290L
sV\u8d54\u8fd8
p2292
L2291L
sV\u535a\u4e9a
p2293
L2292L
sV\u4e22\u5206
p2294
L2293L
sV\u76f4\u9009
p2295
L2294L
sV\u6392\u5217\u4e09
p2296
L2295L
sV\u7ea2\u4f53
p2297
L2296L
sV\u4e0a\u5408
p2298
L2297L
sV\u5c24\u6587
p2299
L2298L
sV\u8428\u62c9\u7279
p2300
L2299L
sV\u6ee1\u8425
p2301
L2300L
sV\u9632\u4f4f
p2302
L2301L
sV\u6218\u610f
p2303
L2302L
sV\u8fea\u7eb3\u6469
p2304
L2303L
sV\u8d2d\u5f69
p2305
L2304L
sV\u5151\u5956
p2306
L2305L
sV\u6851\u666e
p2307
L2306L
sV\u5361\u5229\u4e9a\u91cc
p2308
L2307L
sV\u8036\u91cc
p2309
L2308L
sV\u91cc\u5c3c\u5965
p2310
L2309L
sV\u671f\u5f20\u6c0f
p2311
L2310L
sV\u79d8\u6280
p2312
L2311L
sV\u6eda\u5165
p2313
L2312L
sV\u7d2b\u767e\u5408
p2314
L2313L
sV\u8d28\u6570
p2315
L2314L
sV\u4e5d\u8f6e
p2316
L2315L
sV\u6570\u636e\u8868
p2317
L2316L
sV\u5f00\u5956\u53f7\u7801
p2318
L2317L
sV\u4e09\u4f59
p2319
L2318L
sV\u671f\u5171
p2320
L2319L
sV\u70ed\u8865
p2321
L2320L
sV\u7f16\u8f91\u7ec4
p2322
L2321L
sV\u8b66\u5c40
p2323
L2322L
sV\u5357\u7f8e\u56fd\u5bb6
p2324
L2323L
sV\u8dc3\u81f3
p2325
L2324L
sV\u671f\u671f
p2326
L2325L
sV\u4e70\u5ba2
p2327
L2326L
sV\u7b2c\u4e94\u53f7
p2328
L2327L
sV\u8bf7\u53c2\u9605
p2329
L2328L
sV\u6885\u5854
p2330
L2329L
sV\u6c38\u660e
p2331
L2330L
sV\u7206\u51b7\u95e8
p2332
L2331L
sV\u5965\u6797\u5339
p2333
L2332L
sV\u5076\u6570\u53f7
p2334
L2333L
sV\u9664\u56db\u4f59
p2335
L2334L
sV\u5854\u5229
p2336
L2335L
sV\u7591\u56e0
p2337
L2336L
sV\u5317\u56db\u73af
p2338
L2337L
sV\u8bda\u9080
p2339
L2338L
sV\u65f6\u8bf7
p2340
L2339L
sV\u52aa\u66fc
p2341
L2340L
sV\u5f69\u7968\u7f51
p2342
L2341L
sV\u534e\u5f69\u7f51
p2343
L2342L
sV\u5e73\u5c40
p2344
L2343L
sV\u6392\u540d\u699c
p2345
L2344L
sV\u516d\u7b49\u5956
p2346
L2345L
sV\u5149\u68cd\u8282
p2347
L2346L
sV\u590d\u5f0f\u7968
p2348
L2347L
sV\u7f57\u57fa
p2349
L2348L
sV\u9a6c\u62c9\u52a0
p2350
L2349L
sV\u6536\u62bc
p2351
L2350L
sV\u4e2d\u5956\u7387
p2352
L2351L
sV\u7b7e\u6ce8
p2353
L2352L
sV\u5185\u7ebf\u4ea4\u6613
p2354
L2353L
sV\u6084\u7136\u79bb\u53bb
p2355
L2354L
sV\u786e\u5207\u7684\u8bf4
p2356
L2355L
sV\u4e94\u90e8\u59d4
p2357
L2356L
sV\u5956\u5238
p2358
L2357L
sV\u5956\u53f7\u91cf
p2359
L2358L
sV\u91d1\u878d\u7ba1\u7406
p2360
L2359L
sV\u7f51\u4ee5
p2361
L2360L
sV\u4e2d\u6b64
p2362
L2361L
sV\u56e0\u8d2d\u4e70
p2363
L2362L
sV\u52a0\u65af\u4f69
p2364
L2363L
sV\u6162\u52a8\u4f5c
p2365
L2364L
sV\u65af\u9a6c
p2366
L2365L
sV\u7f57\u68ee\u535a\u683c
p2367
L2366L
sV\u5723\u57c3\u8482\u5b89\u961f
p2368
L2367L
sV\u4eae\u5355
p2369
L2368L
sV\u5ba2\u573a
p2370
L2369L
sV\u79d1\u7ef4\u5c14
p2371
L2370L
sV\u5b09\u76ae\u58eb
p2372
L2371L
sV\u5b89\u5168\u7ebf
p2373
L2372L
sV\u51b7\u70b9
p2374
L2373L
sV\u8d5b\u9a6c\u8282
p2375
L2374L
sV\u903c\u5e73
p2376
L2375L
sV\u671f\u65e0\u65ad
p2377
L2376L
sV\u6b64\u53f7
p2378
L2377L
sV\u8212\u65af\u7279
p2379
L2378L
sV\u653b\u575a\u80fd\u529b
p2380
L2379L
sV\u5012\u4e09\u4e03
p2381
L2380L
sV\u57c3\u5c14\u66fc
p2382
L2381L
sV\u901a\u77e5\u7cbe\u795e
p2383
L2382L
sV\u56db\u53f7\u4f4d
p2384
L2383L
sV\u627e\u96f6
p2385
L2384L
sV\u683c\u52d2\u8bfa
p2386
L2385L
sV\u5361\u5854\u5c3c\u4e9a
p2387
L2386L
sV\u6258\u8482
p2388
L2387L
sV\u8d4c\u5c40
p2389
L2388L
sV\u5f00\u5f69
p2390
L2389L
sV\u5723\u8bde\u793c\u7269
p2391
L2390L
sV\u4e94\u7b49\u5956
p2392
L2391L
sV\u53d7\u70ed\u6367
p2393
L2392L
sV\u57ab\u652f
p2394
L2393L
sV\u7ecf\u4fa6
p2395
L2394L
sV\u4f5c\u6848\u5de5\u5177
p2396
L2395L
sV\u4f5c\u6848\u5acc\u7591
p2397
L2396L
sV\u6570\u5f20
p2398
L2397L
sV\u8ffd\u503a
p2399
L2398L
sV\u6708\u95f4
p2400
L2399L
sV\u9886\u5956\u8005
p2401
L2400L
sV\u7279\u4f9b
p2402
L2401L
sV\u4e2a\u533a
p2403
L2402L
sV\u8bc4\u5934\u8bba\u8db3
p2404
L2403L
sV\u9a8c\u7968
p2405
L2404L
sV\u611f\u89c9\u4e0d\u597d
p2406
L2405L
sV\u7f51\u8350
p2407
L2406L
sV\u5927\u7403\u573a
p2408
L2407L
sV\u5b9d\u8d35\u610f\u89c1
p2409
L2408L
sV\u5947\u5f31
p2410
L2409L
sV\u53cc\u8272\u7403
p2411
L2410L
sV\u809a\u76ae\u821e
p2412
L2411L
sV\u5947\u53f7
p2413
L2412L
sV\u51b7\u7403
p2414
L2413L
sV\u8d62\u8fc7
p2415
L2414L
sV\u74e6\u6717\u8c22
p2416
L2415L
sV\u70b9\u591a\u949f
p2417
L2416L
sV\u5982\u7bad\u5728\u5f26
p2418
L2417L
sV\u8d28\u53f7
p2419
L2418L
sV\u4e2d\u5956\u4eba
p2420
L2419L
sV\u573a\u6b21
p2421
L2420L
sV\u70b9\u51fb
p2422
L2421L
sV\u6709\u6548\u8bc1\u4ef6
p2423
L2422L
sV\u9a7b\u8db3\u89c2\u770b
p2424
L2423L
sV\u7985\u57ce
p2425
L2424L
sV\u5408\u5bb6\u5e78\u798f
p2426
L2425L
sV\u4f9b\u7a3f
p2427
L2426L
sV\u633d\u56de\u635f\u5931
p2428
L2427L
sV\u6625\u8282\u5feb\u4e50
p2429
L2428L
sV\u76f4\u64ad\u5ba4
p2430
L2429L
sV\u5185\u5230
p2431
L2430L
sV\u9686\u91cd\u63a8\u51fa
p2432
L2431L
sV\u9644\u9001
p2433
L2432L
sV\u8d2b\u56f0\u5b66\u751f
p2434
L2433L
sV\u51fa\u7403\u7387
p2435
L2434L
sV\u64c2\u53f0
p2436
L2435L
sV\u5723\u65e5\u5c14\u66fc
p2437
L2436L
sV\u8d62\u5927\u5956
p2438
L2437L
sV\u5355\u6311
p2439
L2438L
sV\u5947\u5076\u6bd4
p2440
L2439L
sV\u63d2\u4ef6
p2441
L2440L
sV\u5730\u662f
p2442
L2441L
sV\u83b7\u5211
p2443
L2442L
sV\u671f\u4e8c\u7801
p2444
L2443L
sV\u529b\u4f1a
p2445
L2444L
sV\u671f\u4e09\u7801
p2446
L2445L
sV\u51fa\u7ebf
p2447
L2446L
sV\u603b\u573a
p2448
L2447L
sV\u7b2c\u4e8c\u6863
p2449
L2448L
sV\u5730\u56fe\u641c\u7d22
p2450
L2449L
sV\u4e1c\u56db\u73af
p2451
L2450L
sV\u526f\u9547\u957f
p2452
L2451L
sV\u4e2d\u6765
p2453
L2452L
sV\u8fbe\u89c2
p2454
L2453L
sV\u4eac\u5ba2\u9686
p2455
L2454L
sV\u53f7\u697c
p2456
L2455L
sV\u4e09\u5c45
p2457
L2456L
sV\u751f\u6001\u56ed\u6797
p2458
L2457L
sV\u4e00\u68af
p2459
L2458L
sV\u697c\u5ea7
p2460
L2459L
sV\u9999\u5948\u513f
p2461
L2460L
sV\u6768\u5c11\u950b
p2462
L2461L
sV\u5f53\u4ee3\u827a\u672f
p2463
L2462L
sV\u4eba\u751f\u4ef7\u503c
p2464
L2463L
sV\u5efa\u9762
p2465
L2464L
sV\u697c\u738b
p2466
L2465L
sV\u5343\u4e07\u7ea7
p2467
L2466L
sV\u6073\u8c08
p2468
L2467L
sV\u4e8b\u5b9e\u80dc\u4e8e\u96c4\u8fa9
p2469
L2468L
sV\u6073\u8c08\u4f1a
p2470
L2469L
sV\u56de\u8fc1\u623f
p2471
L2470L
sV\u56de\u8fc1
p2472
L2471L
sV\u5371\u65e7\u623f
p2473
L2472L
sV\u540d\u76d8
p2474
L2473L
sV\u4e2d\u56fd\u6444\u5f71\u5bb6\u534f\u4f1a
p2475
L2474L
sV\u6444\u5f71\u5c55
p2476
L2475L
sV\u8bbf\u8c08\u5b9e\u5f55
p2477
L2476L
sV\u56ed\u6797\u8bbe\u8ba1
p2478
L2477L
sV\u5b89\u8fea
p2479
L2478L
sV\u7cbe\u54c1\u5e97
p2480
L2479L
sV\u5341\u53f7
p2481
L2480L
sV\u674e\u6587\u6770
p2482
L2481L
sV\u4f01\u7a33
p2483
L2482L
sV\u4e8c\u5c45\u5ba4
p2484
L2483L
sV\u6c38\u8fdc\u7684\u75db
p2485
L2484L
sV\u76db\u5927\u4e3e\u884c
p2486
L2485L
sV\u9a6c\u9a79\u6865
p2487
L2486L
sV\u5b8b\u5bb6\u5e84
p2488
L2487L
sV\u7ec3\u4e60\u573a
p2489
L2488L
sV\u4ea7\u6743\u8bc1
p2490
L2489L
sV\u63a7\u5236\u89c4\u6a21
p2491
L2490L
sV\u5957\u578b
p2492
L2491L
sV\u53cc\u62fc
p2493
L2492L
sV\u7eff\u8272\u751f\u6001
p2494
L2493L
sV\u6c88\u9ad8\u901f
p2495
L2494L
sV\u4e1c\u4e8c\u73af
p2496
L2495L
sV\u71d5\u838e
p2497
L2496L
sV\u9996\u5c42
p2498
L2497L
sV\u6324\u7206
p2499
L2498L
sV\u5317\u4eac\u534e
p2500
L2499L
sV\u6447\u53f7
p2501
L2500L
sV\u4e50\u5c45
p2502
L2501L
sV\u51c6\u73b0\u623f
p2503
L2502L
sV\u5b9e\u666f\u56fe
p2504
L2503L
sV\u516d\u91cc\u6865
p2505
L2504L
sV\u5317\u4eac\u4e1c\u65b9
p2506
L2505L
sV\u4e1c\u65b9\u541b
p2507
L2506L
sV\u8d39\u5c14\u5357\u591a
p2508
L2507L
sV\u4eba\u9645\u6c9f\u901a
p2509
L2508L
sV\u4e1c\u65b9\u5e7f\u573a
p2510
L2509L
sV\u5317\u4eac\u623f\u4ea7
p2511
L2510L
sV\u827e\u745e\u514b
p2512
L2511L
sV\u6c88\u529b
p2513
L2512L
sV\u5510\u5b81
p2514
L2513L
sV\u674e\u654f
p2515
L2514L
sV\u5fa1\u56ed
p2516
L2515L
sV\u56db\u53f7\u7ebf
p2517
L2516L
sV\u65e7\u6751
p2518
L2517L
sV\u5341\u5ea6
p2519
L2518L
sV\u4e3d\u6cfd
p2520
L2519L
sV\u5357\u4e8c\u73af
p2521
L2520L
sV\u8f6c\u8ba9\u91d1
p2522
L2521L
sV\u8fc7\u591a\u5730
p2523
L2522L
sV\u4e5d\u9f99\u5858
p2524
L2523L
sV\u767e\u5206\u4e4b\u96f6\u70b9
p2525
L2524L
sV\u5ea6\u5047\u578b
p2526
L2525L
sV\u4e09\u56db\u5341\u5c81
p2527
L2526L
sV\u57ce\u5e02\u6838\u5fc3
p2528
L2527L
sV\u73af\u4ee5\u5916
p2529
L2528L
sV\u8425\u9500\u7b56\u5212
p2530
L2529L
sV\u751f\u6001\u666f\u89c2
p2531
L2530L
sV\u5317\u4eac\u7ecf\u6d4e\u6280\u672f\u5f00\u53d1\u533a
p2532
L2531L
sV\u516c\u4e3b\u575f
p2533
L2532L
sV\u62cd\u5356\u54c1
p2534
L2533L
sV\u8bbe\u8ba1\u5ba4
p2535
L2534L
sV\u5929\u9645\u7ebf
p2536
L2535L
sV\u5b9a\u4f4d\u95ee\u9898
p2537
L2536L
sV\u57a1\u5934
p2538
L2537L
sV\u8096\u52b2
p2539
L2538L
sV\u5d07\u793c\u53bf
p2540
L2539L
sV\u738b\u8bda
p2541
L2540L
sV\u53ef\u552e
p2542
L2541L
sV\u4eac\u6d25\u5180
p2543
L2542L
sV\u6211\u8c08
p2544
L2543L
sV\u5f00\u5f66
p2545
L2544L
sV\u4e1c\u575d
p2546
L2545L
sV\u9650\u8d2d
p2547
L2546L
sV\u9648\u4fca
p2548
L2547L
sV\u6768\u4e50
p2549
L2548L
sV\u8bba\u5251
p2550
L2549L
sV\u697c\u680b
p2551
L2550L
sV\u51c9\u6c34\u6cb3
p2552
L2551L
sV\u5927\u5174\u533a
p2553
L2552L
sV\u6765\u8c08
p2554
L2553L
sV\u70ed\u76d8
p2555
L2554L
sV\u5546\u4e1a\u697c
p2556
L2555L
sV\u8d85\u5bbd
p2557
L2556L
sV\u5149\u673a\u7535
p2558
L2557L
sV\u4e94\u73af\u8def
p2559
L2558L
sV\u9999\u6797
p2560
L2559L
sV\u6237\u578b\u56fe
p2561
L2560L
sV\u542f\u5e55
p2562
L2561L
sV\u9648\u4e91\u5cf0
p2563
L2562L
sV\u7f57\u519b
p2564
L2563L
sV\u57ce\u5317\u533a
p2565
L2564L
sV\u516c\u56ed\u5f0f
p2566
L2565L
sV\u9644\u8d60
p2567
L2566L
sV\u65b0\u5730\u4ea7
p2568
L2567L
sV\u4e2d\u670d
p2569
L2568L
sV\u6bcf\u5468\u4e94
p2570
L2569L
sV\u4e3b\u8857
p2571
L2570L
sV\u5fc5\u770b
p2572
L2571L
sV\u63a5\u9a73
p2573
L2572L
sV\u804a\u57ce\u5e02
p2574
L2573L
sV\u592a\u5435
p2575
L2574L
sV\u5929\u9e45\u5821
p2576
L2575L
sV\u897f\u5ba2\u7ad9
p2577
L2576L
sV\u7acb\u9886
p2578
L2577L
sV\u91cf\u4f53\u88c1\u8863
p2579
L2578L
sV\u5bf9\u7ecf
p2580
L2579L
sV\u914d\u79df
p2581
L2580L
sV\u623f\u6447\u53f7
p2582
L2581L
sV\u8f6e\u5019
p2583
L2582L
sV\u5f20\u654f
p2584
L2583L
sV\u4e0b\u79f0
p2585
L2584L
sV\u5343\u4e07\u4ebf
p2586
L2585L
sV\u6b66\u660c\u533a
p2587
L2586L
sV\u6d2a\u5c71\u533a
p2588
L2587L
sV\u8f6f\u4ef6\u7a0b\u5e8f
p2589
L2588L
sV\u7ecf\u9002
p2590
L2589L
sV\u623f\u4ef7\u683c
p2591
L2590L
sV\u6587\u6ce2
p2592
L2591L
sV\u897f\u5b50\u6e7e
p2593
L2592L
sV\u7b26\u5408\u6761\u4ef6\u8005
p2594
L2593L
sV\u97e9\u4e16\u540c
p2595
L2594L
sV\u65e0\u623f\u6237
p2596
L2595L
sV\u4fdd\u969c\u90e8\u95e8
p2597
L2596L
sV\u65d7\u80dc
p2598
L2597L
sV\u5317\u4eac\u5e02\u5efa\u59d4
p2599
L2598L
sV\u623f\u4ea7\u4fe1\u606f
p2600
L2599L
sV\u5df2\u8d2d
p2601
L2600L
sV\u7387\u9ad8\u8fbe
p2602
L2601L
sV\u5c55\u793a\u4e2d\u5fc3
p2603
L2602L
sV\u987a\u5e8f\u53f7
p2604
L2603L
sV\u897f\u4e8c\u73af
p2605
L2604L
sV\u4e0a\u6709\u653f\u7b56
p2606
L2605L
sV\u5e02\u4f4f
p2607
L2606L
sV\u56de\u9f99\u89c2
p2608
L2607L
sV\u9009\u623f
p2609
L2608L
sV\u4e0a\u6d77\u5e02\u5206\u884c
p2610
L2609L
sV\u5973\u4e1a\u4e3b
p2611
L2610L
sV\u5411\u94b1\u770b
p2612
L2611L
sV\u8d28\u91cf\u68c0\u67e5
p2613
L2612L
sV\u534e\u4e2d\u79d1\u6280\u5927\u5b66
p2614
L2613L
sV\u516c\u5c4b
p2615
L2614L
sV\u6295\u5de8\u8d44
p2616
L2615L
sV\u5317\u4eac\u5e02\u4eba\u6c11\u653f\u5e9c
p2617
L2616L
sV\u5927\u5858
p2618
L2617L
sV\u96be\u6539
p2619
L2618L
sV\u674e\u5a67
p2620
L2619L
sV\u5f00\u6237\u94f6\u884c
p2621
L2620L
sV\u5957\u5185
p2622
L2621L
sV\u4e01\u5148\u751f
p2623
L2622L
sV\u4f9d\u89c4
p2624
L2623L
sV\u672a\u529e
p2625
L2624L
sV\u4ecd\u5b58
p2626
L2625L
sV\u89c4\u5212\u59d4
p2627
L2626L
sV\u642d\u4fbf\u8f66
p2628
L2627L
sV\u66dd\u51fa
p2629
L2628L
sV\u603b\u6237\u6570
p2630
L2629L
sV\u9ad8\u4f01
p2631
L2630L
sV\u9648\u535a
p2632
L2631L
sV\u519c\u4e1a\u6237\u53e3
p2633
L2632L
sV\u8be5\u6cd5
p2634
L2633L
sV\u65b0\u89c4
p2635
L2634L
sV\u8d2d\u4e70\u8fc7\u7a0b
p2636
L2635L
sV\u6258\u513f
p2637
L2636L
sV\u5218\u65b0\u864e
p2638
L2637L
sV\u767b\u51fa\u6765
p2639
L2638L
sV\u4e8c\u6708\u4efd
p2640
L2639L
sV\u4e0a\u7f51\u8d39
p2641
L2640L
sV\u7f51\u8d39
p2642
L2641L
sV\u5218\u603b
p2643
L2642L
sV\u53ef\u8d37
p2644
L2643L
sV\u4e70\u5149
p2645
L2644L
sV\u5784\u4e0a
p2646
L2645L
sV\u5b09\u76ae
p2647
L2646L
sV\u5434\u660a
p2648
L2647L
sV\u60f3\u505a\u5230
p2649
L2648L
sV\u7559\u82f1
p2650
L2649L
sV\u540c\u5b66\u4f1a
p2651
L2650L
sV\u7559\u5b66\u4eba\u5458
p2652
L2651L
sV\u793e\u533a\u89c4\u5212
p2653
L2652L
sV\u6d53\u60c5
p2654
L2653L
sV\u5317\u4eac\u5e02\u653f\u534f
p2655
L2654L
sV\u738b\u6c38\u5e86
p2656
L2655L
sV\u7b7e\u5230
p2657
L2656L
sV\u56fe\u6587
p2658
L2657L
sV\u526f\u53f0\u957f
p2659
L2658L
sV\u848b\u9e4f
p2660
L2659L
sV\u6c34\u6728
p2661
L2660L
sV\u91d1\u878d\u533a
p2662
L2661L
sV\u5218\u6dc7
p2663
L2662L
sV\u82ad\u6bd4\u5a03\u5a03
p2664
L2663L
sV\u751f\u6d3b\u9986
p2665
L2664L
sV\u6587\u56ed
p2666
L2665L
sV\u5feb\u5feb\u4e50\u4e50
p2667
L2666L
sV\u7ec4\u529e
p2668
L2667L
sV\u513f\u7ae5\u7528\u54c1
p2669
L2668L
sV\u738b\u5fd7\u521a
p2670
L2669L
sV\u8d2b\u56f0\u5bb6\u5ead
p2671
L2670L
sV\u6298\u6263\u5e97
p2672
L2671L
sV\u4e92\u52a8\u5f0f
p2673
L2672L
sV\u5a74\u513f\u8f66
p2674
L2673L
sV\u5168\u63a5\u89e6
p2675
L2674L
sV\u85c9\u7531
p2676
L2675L
sV\u4e5d\u5757
p2677
L2676L
sV\u6b64\u8f6e
p2678
L2677L
sV\u8f66\u8d37
p2679
L2678L
sV\u6c83\u5c14\u9a6c
p2680
L2679L
sV\u5c45\u59d4
p2681
L2680L
sV\u521b\u4e00\u6d41
p2682
L2681L
sV\u5411\u4e1a\u754c
p2683
L2682L
sV\u4e4c\u5ba1
p2684
L2683L
sV\u72c2\u98da
p2685
L2684L
sV\u6700\u9177
p2686
L2685L
sV\u513f\u7ae5\u8282
p2687
L2686L
sV\u7ecf\u9a8c\u503c
p2688
L2687L
sV\u9648\u658c
p2689
L2688L
sV\u56fd\u52a1\u9662\u65b0\u95fb\u529e
p2690
L2689L
sV\u674e\u5efa\u56fd
p2691
L2690L
sV\u82b1\u56ed\u5f0f
p2692
L2691L
sV\u70b9\u5f0f
p2693
L2692L
sV\u65b0\u90fd\u5e02
p2694
L2693L
sV\u6bcf\u5929\u82b1
p2695
L2694L
sV\u592a\u6709\u94b1
p2696
L2695L
sV\u670b\u514b
p2697
L2696L
sV\u6743\u76ca\u4fdd\u62a4\u6cd5
p2698
L2697L
sV\u5c0f\u9633\u6625
p2699
L2698L
sV\u4e2d\u8981
p2700
L2699L
sV\u793e\u56e2\u7ec4\u7ec7
p2701
L2700L
sV\u7ef5\u8584\u4e4b\u529b
p2702
L2701L
sV\u56db\u5343\u5757
p2703
L2702L
sV\u534a\u5c42
p2704
L2703L
sV\u5f15\u5bfc\u6027
p2705
L2704L
sV\u65e0\u5e95\u4ef7
p2706
L2705L
sV\u524d\u95e8\u5927\u8857
p2707
L2706L
sV\u653e\u4efb\u4e0d\u7ba1
p2708
L2707L
sV\u661f\u5df4\u514b
p2709
L2708L
sV\u4e03\u7c73
p2710
L2709L
sV\u6709\u623f\u4f4f
p2711
L2710L
sV\u8c03\u589e
p2712
L2711L
sV\u5361\u5230
p2713
L2712L
sV\u5361\u6d88\u8d39
p2714
L2713L
sV\u4e1c\u5bcc
p2715
L2714L
sV\u521b\u5c55
p2716
L2715L
sV\u5e38\u9752\u85e4
p2717
L2716L
sV\u5173\u5065
p2718
L2717L
sV\u6bd4\u8f83\u652f\u6301
p2719
L2718L
sV\u63d0\u95ee\u8005
p2720
L2719L
sV\u5341\u4e8c\u6708\u4efd
p2721
L2720L
sV\u4e24\u4e07\u4e94
p2722
L2721L
sV\u8fd0\u7a0b
p2723
L2722L
sV\u60f3\u5c06\u6765
p2724
L2723L
sV\u73cd\u85cf\u7248
p2725
L2724L
sV\u6625\u88c5
p2726
L2725L
sV\u5546\u4e1a\u90e8
p2727
L2726L
sV\u6768\u603b\u8bf4
p2728
L2727L
sV\u8054\u884c
p2729
L2728L
sV\u6559\u5b66\u7ba1\u7406
p2730
L2729L
sV\u6307\u6807\u6027
p2731
L2730L
sV\u5f00\u53d1\u9636\u6bb5
p2732
L2731L
sV\u4e4b\u9080
p2733
L2732L
sV\u7b2c\u4e00\u76d8
p2734
L2733L
sV\u7403\u827a
p2735
L2734L
sV\u8ba4\u771f\u7ec6\u81f4
p2736
L2735L
sV\u906d\u62a2
p2737
L2736L
sV\u793e\u4ea4\u5708
p2738
L2737L
sV\u4e3d\u90fd
p2739
L2738L
sV\u7530\u8015
p2740
L2739L
sV\u56fd\u5b89\u5c40
p2741
L2740L
sV\u517b\u62a4\u4e2d\u5fc3
p2742
L2741L
sV\u62ab\u8428
p2743
L2742L
sV\u4e00\u4e2a\u4e09\u5c42
p2744
L2743L
sV\u79d1\u6280\u524d\u6cbf
p2745
L2744L
sV\u4e2d\u56fd\u56fd\u9645\u5c55\u89c8\u4e2d\u5fc3
p2746
L2745L
sV\u4ee3\u7406\u670d\u52a1
p2747
L2746L
sV\u6295\u884c
p2748
L2747L
sV\u5546\u52a1\u5904
p2749
L2748L
sV\u8de8\u754c
p2750
L2749L
sV\u7b49\u56fd
p2751
L2750L
sV\u6837\u677f\u623f
p2752
L2751L
sV\u5c55\u5546
p2753
L2752L
sV\u672c\u8bba\u575b
p2754
L2753L
sV\u6768\u56fd\u5f3a
p2755
L2754L
sV\u9074\u9009\u51fa
p2756
L2755L
sV\u51af\u4ed1
p2757
L2756L
sV\u59dc\u709c
p2758
L2757L
sV\u59da\u603b
p2759
L2758L
sV\u6052\u745e
p2760
L2759L
sV\u73af\u5883\u6a21\u62df
p2761
L2760L
sV\u4e0a\u6d77\u5357\u4eac\u4e1c\u8def
p2762
L2761L
sV\u8ba1\u5212\u4e66
p2763
L2762L
sV\u5f20\u9526
p2764
L2763L
sV\u4e1a\u4e3b\u8bba\u575b
p2765
L2764L
sV\u60a8\u63d0
p2766
L2765L
sV\u4e0b\u4f1a
p2767
L2766L
sV\u5b9a\u5230
p2768
L2767L
sV\u5e7f\u6e20\u8def
p2769
L2768L
sV\u56fd\u9645\u90fd\u5e02
p2770
L2769L
sV\u4e94\u5c40
p2771
L2770L
sV\u4f73\u58eb\u5f97
p2772
L2771L
sV\u82cf\u5bcc\u6bd4
p2773
L2772L
sV\u98ce\u534e
p2774
L2773L
sV\u8c61\u7d20
p2775
L2774L
sV\u63a0\u5f71
p2776
L2775L
sV\u84dd\u5c9b
p2777
L2776L
sV\u771f\u771f\u6b63\u6b63
p2778
L2777L
sV\u5929\u6052
p2779
L2778L
sV\u738b\u662d
p2780
L2779L
sV\u53d1\u5e16\u5b50
p2781
L2780L
sV\u4e07\u591a\u5757
p2782
L2781L
sV\u8d85\u524d\u6d88\u8d39
p2783
L2782L
sV\u4e2d\u56fd\u5bcc\u8c6a
p2784
L2783L
sV\u8fd0\u8425\u8005
p2785
L2784L
sV\u901a\u8fc7\u8003\u5bdf
p2786
L2785L
sV\u5ba0\u7269\u5e97
p2787
L2786L
sV\u6709\u767e\u5229\u800c\u65e0\u4e00\u5bb3
p2788
L2787L
sV\u4f1a\u5458\u5927\u4f1a
p2789
L2788L
sV\u62a4\u7406\u90e8
p2790
L2789L
sV\u7279\u9080\u5609\u5bbe
p2791
L2790L
sV\u7092\u5f97
p2792
L2791L
sV\u65e5\u5168
p2793
L2792L
sV\u5b8b\u7956\u82f1
p2794
L2793L
sV\u793e\u4ea4\u751f\u6d3b
p2795
L2794L
sV\u670b\u53cb\u5708
p2796
L2795L
sV\u5317\u5927\u6e05\u534e
p2797
L2796L
sV\u4e2d\u592e\u5546\u52a1\u533a
p2798
L2797L
sV\u8155\u8868
p2799
L2798L
sV\u6f14\u8bb2\u4f1a
p2800
L2799L
sV\u8d2d\u7269\u8005
p2801
L2800L
sV\u8d44\u8baf\u4e2d\u5fc3
p2802
L2801L
sV\u5317\u697c
p2803
L2802L
sV\u5171\u5e86
p2804
L2803L
sV\u5e73\u9762\u5e7f\u544a
p2805
L2804L
sV\u7c73\u5947
p2806
L2805L
sV\u5355\u4f4d\u540d\u79f0
p2807
L2806L
sV\u6709\u8272\u773c\u955c
p2808
L2807L
sV\u65b9\u4fbf\u6027
p2809
L2808L
sV\u51fa\u520a
p2810
L2809L
sV\u98df\u5e9c
p2811
L2810L
sV\u5c16\u6c99\u5480
p2812
L2811L
sV\u65f6\u88c5\u8bbe\u8ba1
p2813
L2812L
sV\u5efa\u90a6
p2814
L2813L
sV\u5feb\u6377\u65b9\u5f0f
p2815
L2814L
sV\u7b7e\u5b8c
p2816
L2815L
sV\u6e21\u5047
p2817
L2816L
sV\u8bfa\u4e9a
p2818
L2817L
sV\u6cf0\u5fb7
p2819
L2818L
sV\u6817\u704f\u6e0a
p2820
L2819L
sV\u7acb\u4f53\u5f0f
p2821
L2820L
sV\u771f\u91d1\u4e0d\u6015\u706b\u70bc
p2822
L2821L
sV\u8fc7\u4e2a
p2823
L2822L
sV\u8be5\u6295
p2824
L2823L
sV\u53ef\u6301
p2825
L2824L
sV\u4e00\u4e24\u767e\u4e07
p2826
L2825L
sV\u57ce\u516b\u533a
p2827
L2826L
sV\u7701\u65f6\u7701\u529b
p2828
L2827L
sV\u7cfb\u5217\u8bb2\u5ea7
p2829
L2828L
sV\u5f69\u8d85
p2830
L2829L
sV\u65fa\u89d2
p2831
L2830L
sV\u4e13\u9898\u62a5\u9053
p2832
L2831L
sV\u8bc4\u8bba
p2833
L2832L
sV\u771f\u8bda\u76f8\u5f85
p2834
L2833L
sV\u91d1\u8302
p2835
L2834L
sV\u61a8\u6001\u53ef\u63ac
p2836
L2835L
sV\u9aa8\u9ad3\u5e93
p2837
L2836L
sV\u5149\u534e\u8def
p2838
L2837L
sV\u4f4e\u78b3
p2839
L2838L
sV\u60f3\u8c61\u6027
p2840
L2839L
sV\u8eab\u5728\u5176\u4e2d
p2841
L2840L
sV\u804c\u4e1a\u7ecf\u7406
p2842
L2841L
sV\u8db3\u7403\u660e\u661f
p2843
L2842L
sV\u6211\u60f3\u4f1a
p2844
L2843L
sV\u62a5\u540d\u8868
p2845
L2844L
sV\u641c\u623f\u7f51
p2846
L2845L
sV\u656c\u8bf7\u671f\u5f85
p2847
L2846L
sV\u610f\u89c1\u8005
p2848
L2847L
sV\u86ee\u9ad8
p2849
L2848L
sV\u7b2c\u56db\u6bb5
p2850
L2849L
sV\u67e5\u65e0\u6b64\u4eba
p2851
L2850L
sV\u6d77\u519b\u4e0a\u5c09
p2852
L2851L
sV\u516b\u4e09
p2853
L2852L
sV\u8681\u65cf
p2854
L2853L
sV\u4e94\u9053\u53e3
p2855
L2854L
sV\u9ad8\u8d28
p2856
L2855L
sV\u9152\u5e97\u5ba2\u623f
p2857
L2856L
sV\u68cb\u724c\u5ba4
p2858
L2857L
sV\u4ee5\u60c5\u52a8\u4eba
p2859
L2858L
sV\u96c5\u58eb
p2860
L2859L
sV\u603b\u8d23
p2861
L2860L
sV\u53cb\u597d\u90bb\u90a6
p2862
L2861L
sV\u6613\u5c45
p2863
L2862L
sV\u4e4b\u5feb
p2864
L2863L
sV\u5ba4\u5185\u8fd0\u52a8
p2865
L2864L
sV\u4e30\u7530\u516c\u53f8
p2866
L2865L
sV\u65e5\u5e38\u6027
p2867
L2866L
sV\u7269\u7ba1
p2868
L2867L
sV\u6cb3\u6ee8
p2869
L2868L
sV\u8054\u540d\u5361
p2870
L2869L
sV\u5730\u6765
p2871
L2870L
sV\u738b\u4e1c\u5347
p2872
L2871L
sV\u623f\u4f01
p2873
L2872L
sV\u63d0\u62a5
p2874
L2873L
sV\u6df1\u5733\u534e\u4fa8\u57ce
p2875
L2874L
sV\u738b\u65ed\u4e1c
p2876
L2875L
sV\u4e00\u70b9\u534a
p2877
L2876L
sV\u53cc\u5e74\u5c55
p2878
L2877L
sV\u65af\u6c40
p2879
L2878L
sV\u6bd4\u524d
p2880
L2879L
sV\u592a\u9633\u5bab
p2881
L2880L
sV\u6d17\u8863\u5e97
p2882
L2881L
sV\u7528\u54c1\u5e97
p2883
L2882L
sV\u9ad8\u6e05\u6670
p2884
L2883L
sV\u7a00\u6709\u6027
p2885
L2884L
sV\u795d\u4f60\u4eec
p2886
L2885L
sV\u56db\u680b
p2887
L2886L
sV\u4ef7\u91cf
p2888
L2887L
sV\u4e0d\u4e4f\u5148\u4f8b
p2889
L2888L
sV\u7b2c\u4e03\u9879
p2890
L2889L
sV\u65b0\u5e74\u4f0a\u59cb
p2891
L2890L
sV\u8239\u7ffb
p2892
L2891L
sV\u848b\u9a8f
p2893
L2892L
sV\u7ba1\u7406\u8f6f\u4ef6
p2894
L2893L
sV\u5609\u5e74\u534e
p2895
L2894L
sV\u77e5\u8bc6\u70b9
p2896
L2895L
sV\u70ed\u60c5\u670d\u52a1
p2897
L2896L
sV\u63d0\u632f
p2898
L2897L
sV\u516d\u4e03\u5343\u5143
p2899
L2898L
sV\u5931\u53bb\u673a\u4f1a
p2900
L2899L
sV\u8d61\u517b\u7236\u6bcd
p2901
L2900L
sV\u8001\u6709\u6240\u4e3a
p2902
L2901L
sV\u62db\u62cd
p2903
L2902L
sV\u4f4d\u7f6e\u56fe
p2904
L2903L
sV\u6469\u5929\u697c
p2905
L2904L
sV\u5df4\u62c9\u7279
p2906
L2905L
sV\u5f31\u9879
p2907
L2906L
sV\u96c6\u56e2\u9009\u62e9
p2908
L2907L
sV\u4e0d\u592a\u80fd
p2909
L2908L
sV\u503c\u5f97\u53cd\u601d
p2910
L2909L
sV\u7f8e\u5229
p2911
L2910L
sV\u62c9\u95f8
p2912
L2911L
sV\u91cf\u51fa\u4e3a\u5165
p2913
L2912L
sV\u7cbe\u8015
p2914
L2913L
sV\u90c1\u4eae
p2915
L2914L
sV\u591a\u9000\u5c11\u8865
p2916
L2915L
sV\u6765\u798f\u58eb
p2917
L2916L
sV\u5609\u5fb7\u7f6e
p2918
L2917L
sV\u5f85\u5efa
p2919
L2918L
sV\u644a\u8584
p2920
L2919L
sV\u7f51\u7b7e
p2921
L2920L
sV\u597d\u793c
p2922
L2921L
sV\u5362\u6e7e
p2923
L2922L
sV\u822a\u6a21
p2924
L2923L
sV\u5934\u8111\u7075\u6d3b
p2925
L2924L
sV\u745e\u4fe1
p2926
L2925L
sV\u6731\u6960
p2927
L2926L
sV\u6d6e\u4e8f
p2928
L2927L
sV\u540c\u6863\u6b21
p2929
L2928L
sV\u54ea\u7c7b
p2930
L2929L
sV\u6d41\u52a8\u6bd4\u7387
p2931
L2930L
sV\u901f\u52a8
p2932
L2931L
sV\u5bcc\u529b
p2933
L2932L
sV\u5e97\u5916
p2934
L2933L
sV\u6bcf\u7ecf
p2935
L2934L
sV\u5317\u4eac\u897f
p2936
L2935L
sV\u6b63\u4ee5
p2937
L2936L
sV\u6768\u7f9a
p2938
L2937L
sV\u65e5\u8be5
p2939
L2938L
sV\u8096\u8273
p2940
L2939L
sV\u706b\u62fc
p2941
L2940L
sV\u6cd5\u5f8b\u7ea0\u7eb7
p2942
L2941L
sV\u590d\u724c
p2943
L2942L
sV\u53ef\u6362
p2944
L2943L
sV\u6cf3\u8863
p2945
L2944L
sV\u8c03\u9ad8\u81f3
p2946
L2945L
sV\u589e\u6301
p2947
L2946L
sV\u8d26\u6237\u5c31
p2948
L2947L
sV\u8d22\u62a5
p2949
L2948L
sV\u786e\u8ba4\u51fd
p2950
L2949L
sV\u5212\u8d70
p2951
L2950L
sV\u9707\u707e
p2952
L2951L
sV\u6c76\u5ddd
p2953
L2952L
sV\u6db5\u62ec
p2954
L2953L
sV\u52df\u8d44
p2955
L2954L
sV\u6709\u5976
p2956
L2955L
sV\u6668\u62a5\u8baf
p2957
L2956L
sV\u4f59\u5f20
p2958
L2957L
sV\u65b0\u5bb6\u56ed
p2959
L2958L
sV\u7d22\u507f
p2960
L2959L
sV\u674e\u51cc\u971e
p2961
L2960L
sV\u89c4\u5212\u533a
p2962
L2961L
sV\u56db\u756a
p2963
L2962L
sV\u8f6c\u5b8c
p2964
L2963L
sV\u65f6\u4ee3\u5468\u520a
p2965
L2964L
sV\u534e\u4fa8\u57ce\u96c6\u56e2
p2966
L2965L
sV\u8fc7\u4f1a
p2967
L2966L
sV\u5f20\u8f89
p2968
L2967L
sV\u7a33\u8d5a
p2969
L2968L
sV\u8054\u5c55
p2970
L2969L
sV\u516c\u4f17\u80a1
p2971
L2970L
sV\u4ece\u4e25\u5904\u7406
p2972
L2971L
sV\u51e0\u4ebf\u5143
p2973
L2972L
sV\u5176\u65b0
p2974
L2973L
sV\u8fd9\u4ee4
p2975
L2974L
sV\u4ecd\u8fdc
p2976
L2975L
sV\u83b7\u6279
p2977
L2976L
sV\u731b\u964d
p2978
L2977L
sV\u6025\u5347
p2979
L2978L
sV\u5143\u81f3
p2980
L2979L
sV\u4ea7\u7ecf\u65b0\u95fb
p2981
L2980L
sV\u7968\u6839
p2982
L2981L
sV\u503c\u7ea6
p2983
L2982L
sV\u5143\u4e3a
p2984
L2983L
sV\u4e0d\u8bbe
p2985
L2984L
sV\u534e\u57ce
p2986
L2985L
sV\u5317\u4eac\u4f4f\u603b\u96c6\u56e2
p2987
L2986L
sV\u516c\u5b89\u53bf
p2988
L2987L
sV\u4e0a\u5747
p2989
L2988L
sV\u4e16\u8d38\u4e2d\u5fc3
p2990
L2989L
sV\u4f4e\u4e70
p2991
L2990L
sV\u54c8\u6839\u8fbe\u65af
p2992
L2991L
sV\u4e00\u4e24\u5468
p2993
L2992L
sV\u65b0\u8d27
p2994
L2993L
sV\u6cd5\u52a1\u90e8
p2995
L2994L
sV\u6062\u590d\u80fd\u529b
p2996
L2995L
sV\u4ef7\u662f
p2997
L2996L
sV\u5176\u6709
p2998
L2997L
sV\u62df\u552e
p2999
L2998L
sV\u6768\u5fd7\u521a
p3000
L2999L
sV\u6807\u4e66
p3001
L3000L
sV\u6559\u80b2\u7f51
p3002
L3001L
sV\u6d3d\u8d2d
p3003
L3002L
sV\u65b9\u5c06
p3004
L3003L
sV\u8fd4\u5229
p3005
L3004L
sV\u88ab\u5224\u8d54
p3006
L3005L
sV\u800c\u636e
p3007
L3006L
sV\u7b2c\u4e94\u5e74
p3008
L3007L
sV\u6e10\u884c
p3009
L3008L
sV\u7387\u4e3a
p3010
L3009L
sV\u5e74\u7387
p3011
L3010L
sV\u623f\u5c4b\u4e70\u5356
p3012
L3011L
sV\u8679\u53e3\u533a
p3013
L3012L
sV\u5b66\u6cd5\u8bed
p3014
L3013L
sV\u672c\u79d1\u6587\u51ed
p3015
L3014L
sV\u4e13\u9898\u8bb2\u5ea7
p3016
L3015L
sV\u6280\u672f\u79fb\u6c11
p3017
L3016L
sV\u8bfb\u7814
p3018
L3017L
sV\u51fa\u56fd\u6df1\u9020
p3019
L3018L
sV\u804c\u4e1a\u89c4\u5212
p3020
L3019L
sV\u6392\u671f
p3021
L3020L
sV\u5b58\u671f
p3022
L3021L
sV\u5e26\u85aa
p3023
L3022L
sV\u6e38\u6cf3\u5708
p3024
L3023L
sV\u7fd8\u9996\u4f01\u76fc
p3025
L3024L
sV\u524d\u534a\u573a
p3026
L3025L
sV\u6559\u80b2\u5c55
p3027
L3026L
sV\u8f6c\u6821
p3028
L3027L
sV\u7f8e\u56fd\u4f7f\u9986
p3029
L3028L
sV\u5e26\u9f50
p3030
L3029L
sV\u56db\u5e74\u5236
p3031
L3030L
sV\u79fb\u6c11\u6cd5
p3032
L3031L
sV\u8f66\u5e93\u91cc
p3033
L3032L
sV\u82f1\u8bed\u8bfe\u7a0b
p3034
L3033L
sV\u9a7e\u9a76\u6267\u7167
p3035
L3034L
sV\u4e92\u52a9\u793e
p3036
L3035L
sV\u94f6\u884c\u5e10\u6237
p3037
L3036L
sV\u53ef\u6765
p3038
L3037L
sV\u7b7e\u5355
p3039
L3038L
sV\u542f\u5fb7
p3040
L3039L
sV\u7559\u5b66\u7b7e\u8bc1
p3041
L3040L
sV\u62e9\u6821
p3042
L3041L
sV\u5434\u6676
p3043
L3042L
sV\u7f09\u6bd2
p3044
L3043L
sV\u6559\u5b66\u8d44\u6e90
p3045
L3044L
sV\u514d\u7b7e
p3046
L3045L
sV\u7537\u5973\u670b\u53cb
p3047
L3046L
sV\u5730\u4e3a
p3048
L3047L
sV\u5355\u604b
p3049
L3048L
sV\u5305\u4e8c\u5976
p3050
L3049L
sV\u6d3e\u51fa\u56fd
p3051
L3050L
sV\u76ae\u5305\u516c\u53f8
p3052
L3051L
sV\u592b\u65af
p3053
L3052L
sV\u88c1\u6389
p3054
L3053L
sV\u6ce8\u518c\u8d39
p3055
L3054L
sV\u79fb\u6c11\u90e8
p3056
L3055L
sV\u4e24\u5e74\u5236
p3057
L3056L
sV\u5546\u5b66
p3058
L3057L
sV\u56e2\u7ec4
p3059
L3058L
sV\u9886\u4e8b\u53f8
p3060
L3059L
sV\u6210\u529f\u7387\u9ad8
p3061
L3060L
sV\u5c3d\u4e49\u52a1
p3062
L3061L
sV\u7f57\u666e\u90e1
p3063
L3062L
sV\u4e1c\u534e\u5927\u5b66
p3064
L3063L
sV\u4e13\u5347\u672c
p3065
L3064L
sV\u65b0\u75c5\u6bd2
p3066
L3065L
sV\u7533\u8bf7\u8d39
p3067
L3066L
sV\u4efb\u8bfe\u8001\u5e08
p3068
L3067L
sV\u81ea\u8d39\u751f
p3069
L3068L
sV\u5de1\u56de\u5c55
p3070
L3069L
sV\u6559\u5b66\u65b9\u5f0f
p3071
L3070L
sV\u6bcf\u5b66\u671f
p3072
L3071L
sV\u6f14\u8bb2\u8005
p3073
L3072L
sV\u8d5b\u9053
p3074
L3073L
sV\u540c\u7b49\u5bf9\u5f85
p3075
L3074L
sV\u5e94\u5c4a\u751f
p3076
L3075L
sV\u5bbd\u8fdb\u4e25\u51fa
p3077
L3076L
sV\u7533\u57ce
p3078
L3077L
sV\u54a8\u8be2\u4f1a
p3079
L3078L
sV\u5916\u7a7f
p3080
L3079L
sV\u65e5\u672c\u8bed
p3081
L3080L
sV\u9b3c\u4f6c
p3082
L3081L
sV\u5feb\u8baf
p3083
L3082L
sV\u5b66\u957f
p3084
L3083L
sV\u524d\u5341
p3085
L3084L
sV\u81ea\u5b9a\u4e49
p3086
L3085L
sV\u7535\u62a5\u8d39
p3087
L3086L
sV\u65c5\u884c\u652f\u7968
p3088
L3087L
sV\u793e\u5de5
p3089
L3088L
sV\u65e0\u5bb6\u53ef\u5f52\u8005
p3090
L3089L
sV\u7f79\u96be\u8005
p3091
L3090L
sV\u5bb6\u957f\u4f1a
p3092
L3091L
sV\u82f1\u56fd\u5927\u5b66
p3093
L3092L
sV\u6a2a\u7a7f\u9a6c\u8def
p3094
L3093L
sV\u5f80\u8fd4\u673a\u7968
p3095
L3094L
sV\u5165\u5b66\u8003\u8bd5
p3096
L3095L
sV\u4e00\u6d41\u5927\u5b66
p3097
L3096L
sV\u9009\u6821
p3098
L3097L
sV\u975e\u5e38\u6001
p3099
L3098L
sV\u4e8c\u672c
p3100
L3099L
sV\u963f\u62c9\u5df4\u9a6c
p3101
L3100L
sV\u6cfd\u897f\u5c9b
p3102
L3101L
sV\u65e5\u672c\u5927\u5b66
p3103
L3102L
sV\u6269\u62db
p3104
L3103L
sV\u8d39\u5168\u514d
p3105
L3104L
sV\u671f\u4e3a
p3106
L3105L
sV\u65e5\u672c\u5171\u540c\u793e
p3107
L3106L
sV\u65e5\u5e01
p3108
L3107L
sV\u820d\u53cb
p3109
L3108L
sV\u52b3\u52a8\u65b0\u95fb
p3110
L3109L
sV\u7b7e\u8bc1\u5b98
p3111
L3110L
sV\u65b0\u897f\u5170\u653f\u5e9c
p3112
L3111L
sV\u65f6\u8981
p3113
L3112L
sV\u4e03\u4e2d
p3114
L3113L
sV\u5b66\u751f\u8bc1
p3115
L3114L
sV\u5e38\u89c1\u95ee\u9898
p3116
L3115L
sV\u603b\u9886\u4e8b\u9986
p3117
L3116L
sV\u62db\u8058\u542f\u4e8b
p3118
L3117L
sV\u65b0\u52a0\u5761\u56fd\u7acb\u5927\u5b66
p3119
L3118L
sV\u81ea\u8d39\u7559\u5b66
p3120
L3119L
sV\u5e73\u65f6\u6210\u7ee9
p3121
L3120L
sV\u5b66\u5e74\u5ea6
p3122
L3121L
sV\u8bfe\u5916\u6d3b\u52a8
p3123
L3122L
sV\u9ad8\u4e2d\u8bfe\u7a0b
p3124
L3123L
sV\u9009\u8bfe
p3125
L3124L
sV\u96c5\u82b3
p3126
L3125L
sV\u54c8\u4f5b\u5546\u5b66\u9662
p3127
L3126L
sV\u91cd\u70b9\u9ad8\u4e2d
p3128
L3127L
sV\u91d1\u5409\u5217
p3129
L3128L
sV\u5c16\u5b50\u751f
p3130
L3129L
sV\u5347\u8bfb
p3131
L3130L
sV\u9002\u5e94\u671f
p3132
L3131L
sV\u82f1\u8bed\u8003\u8bd5
p3133
L3132L
sV\u4e13\u4e1a\u8bfe
p3134
L3133L
sV\u6fb3\u9645
p3135
L3134L
sV\u8bfe\u4e0a
p3136
L3135L
sV\u6211\u672c
p3137
L3136L
sV\u5b66\u6210\u5f52\u56fd
p3138
L3137L
sV\u4e2d\u56fd\u6559\u80b2\u90e8
p3139
L3138L
sV\u4e2a\u4eba\u6210\u957f
p3140
L3139L
sV\u6821\u62a5
p3141
L3140L
sV\u7b7e\u8bc1\u5904
p3142
L3141L
sV\u8d22\u7ecf\u7c7b
p3143
L3142L
sV\u8de8\u6587\u5316
p3144
L3143L
sV\u5e7f\u53d7
p3145
L3144L
sV\u5f55\u53d6\u7387
p3146
L3145L
sV\u540d\u989d\u6709\u9650
p3147
L3146L
sV\u5b66\u4f4d\u8bc1
p3148
L3147L
sV\u4e13\u4e1a\u8bfe\u7a0b
p3149
L3148L
sV\u65e5\u5e38\u884c\u4e3a
p3150
L3149L
sV\u6b7b\u7f20\u70c2\u6253
p3151
L3150L
sV\u516d\u662f
p3152
L3151L
sV\u9009\u62e9\u9762
p3153
L3152L
sV\u62db\u751f\u4eba\u6570
p3154
L3153L
sV\u7f51\u8def\u4e0a
p3155
L3154L
sV\u5b9d\u6d01\u516c\u53f8
p3156
L3155L
sV\u672c\u79d1\u8bfe\u7a0b
p3157
L3156L
sV\u6210\u7ee9\u4f18\u826f
p3158
L3157L
sV\u4e0d\u8003
p3159
L3158L
sV\u5e73\u9762\u8bbe\u8ba1
p3160
L3159L
sV\u73e0\u5b9d\u5c55
p3161
L3160L
sV\u5468\u751f\u751f
p3162
L3161L
sV\u79d1\u7cfb
p3163
L3162L
sV\u8b66\u65b9\u6b63
p3164
L3163L
sV\u56fd\u5bb6\u6559\u80b2\u90e8
p3165
L3164L
sV\u6613\u4e09\u4ed3
p3166
L3165L
sV\u591a\u5730
p3167
L3166L
sV\u4eba\u6bcd
p3168
L3167L
sV\u4e03\u5e74\u7ea7
p3169
L3168L
sV\u79c1\u7acb\u5b66\u6821
p3170
L3169L
sV\u9ad8\u4e2d\u5b66\u751f
p3171
L3170L
sV\u4f18\u79c0\u751f
p3172
L3171L
sV\u9999\u6e2f\u79d1\u6280\u5927\u5b66
p3173
L3172L
sV\u9999\u6e2f\u7406\u5de5\u5927\u5b66
p3174
L3173L
sV\u6307\u5bfc\u6559\u6388
p3175
L3174L
sV\u60ca\u95fb
p3176
L3175L
sV\u5251\u6865\u90e1
p3177
L3176L
sV\u9ed1\u4e2d\u4ecb
p3178
L3177L
sV\u6d77\u5f52
p3179
L3178L
sV\u5546\u79d1
p3180
L3179L
sV\u4f1a\u8ba1\u4e13\u4e1a
p3181
L3180L
sV\u7f8e\u53d1\u5e08
p3182
L3181L
sV\u4e2d\u6587\u7f51\u7ad9
p3183
L3182L
sV\u8003\u5206
p3184
L3183L
sV\u5546\u52a1\u8003\u5bdf
p3185
L3184L
sV\u5927\u5b66\u6392\u540d
p3186
L3185L
sV\u5c45\u7559\u8bc1
p3187
L3186L
sV\u67dc\u5458\u673a
p3188
L3187L
sV\u4ebf\u4eba
p3189
L3188L
sV\u4e3a\u4f8b
p3190
L3189L
sV\u5f55\u53d6\u540d\u989d
p3191
L3190L
sV\u672c\u4e13\u79d1
p3192
L3191L
sV\u5927\u4e13\u751f
p3193
L3192L
sV\u6b63\u88c5
p3194
L3193L
sV\u666e\u901a\u672c\u79d1
p3195
L3194L
sV\u65f6\u85aa
p3196
L3195L
sV\u7f8e\u56fd\u5927\u5b66
p3197
L3196L
sV\u53cc\u5b66\u4f4d
p3198
L3197L
sV\u8ba1\u7b97\u673a\u4e13\u4e1a
p3199
L3198L
sV\u6cdb\u73e0\u4e09\u89d2
p3200
L3199L
sV\u63a8\u8350\u4fe1
p3201
L3200L
sV\u6258\u798f
p3202
L3201L
sV\u5c97\u524d
p3203
L3202L
sV\u6fb3\u5927\u5229\u4e9a\u8054\u90a6\u653f\u5e9c
p3204
L3203L
sV\u7cbe\u82f1\u6559\u80b2
p3205
L3204L
sV\u62a2\u624b\u8d27
p3206
L3205L
sV\u5148\u8bfb
p3207
L3206L
sV\u9ebb\u7701\u7406\u5de5
p3208
L3207L
sV\u7236\u4eb2\u8282
p3209
L3208L
sV\u8d3a\u5361
p3210
L3209L
sV\u521d\u9ad8\u4e2d
p3211
L3210L
sV\u4eba\u624d\u9700\u6c42
p3212
L3211L
sV\u6709\u591a\u5f3a
p3213
L3212L
sV\u5f00\u53d1\u7f72
p3214
L3213L
sV\u8bfa\u4e01\u6c49
p3215
L3214L
sV\u5165\u8bfb
p3216
L3215L
sV\u65b0\u52a0\u5761\u653f\u5e9c
p3217
L3216L
sV\u9884\u79d1\u73ed
p3218
L3217L
sV\u4fee\u8bfb
p3219
L3218L
sV\u8fea\u80af
p3220
L3219L
sV\u848b\u6b63\u534e
p3221
L3220L
sV\u5b66\u6210\u56de\u56fd
p3222
L3221L
sV\u8881\u5cb3
p3223
L3222L
sV\u65b0\u4e1c\u65b9\u5b66\u6821
p3224
L3223L
sV\u6821\u53cb\u4f1a
p3225
L3224L
sV\u601d\u60f3\u5f00\u653e
p3226
L3225L
sV\u5f55\u53d6\u540d\u5355
p3227
L3226L
sV\u6388\u724c
p3228
L3227L
sV\u7533\u8bf7\u4eba
p3229
L3228L
sV\u516c\u5f00\u9009\u62d4
p3230
L3229L
sV\u54a8\u8be2\u8005
p3231
L3230L
sV\u53ef\u7701
p3232
L3231L
sV\u51fa\u751f\u8bc1\u660e
p3233
L3232L
sV\u65f6\u5e94
p3234
L3233L
sV\u8f89\u8000
p3235
L3234L
sV\u826f\u597d\u4fe1\u8a89
p3236
L3235L
sV\u5175\u9a6c\u672a\u52a8
p3237
L3236L
sV\u544a\u793a\u724c
p3238
L3237L
sV\u5496\u55b1
p3239
L3238L
sV\u5a01\u65af\u5eb7\u8f9b
p3240
L3239L
sV\u5168\u7cfb
p3241
L3240L
sV\u77ed\u4e8e
p3242
L3241L
sV\u51fa\u56fd\u6e38
p3243
L3242L
sV\u4fa8\u62a5
p3244
L3243L
sV\u6dd8\u6c70\u5236
p3245
L3244L
sV\u5e03\u91cc\u65af\u6258
p3246
L3245L
sV\u534e\u5a01
p3247
L3246L
sV\u82f1\u8bed\u8001\u5e08
p3248
L3247L
sV\u526f\u7406
p3249
L3248L
sV\u963f\u5c14\u4f2f
p3250
L3249L
sV\u6bcf\u6b3e
p3251
L3250L
sV\u5b89\u683c\u65af
p3252
L3251L
sV\u804c\u4e1a\u9662\u6821
p3253
L3252L
sV\u963f\u5fb7\u96f7
p3254
L3253L
sV\u804c\u6821
p3255
L3254L
sV\u54c8\u4f5b\u5927\u5b66\u5546\u5b66\u9662
p3256
L3255L
sV\u4ecb\u9762
p3257
L3256L
sV\u966a\u8bfb
p3258
L3257L
sV\u6fb3\u5e01
p3259
L3258L
sV\u53cc\u5e01
p3260
L3259L
sV\u5b66\u751f\u5904
p3261
L3260L
sV\u4e13\u4e1a\u578b
p3262
L3261L
sV\u4e09\u5e74\u5236
p3263
L3262L
sV\u4e13\u79d1\u751f
p3264
L3263L
sV\u7784\u4e0a
p3265
L3264L
sV\u9063\u9001\u56de\u56fd
p3266
L3265L
sV\u8d28\u91cf\u5173
p3267
L3266L
sV\u8896\u6263
p3268
L3267L
sV\u8273\u9047
p3269
L3268L
sV\u5929\u79e4\u5ea7
p3270
L3269L
sV\u6d77\u5f85
p3271
L3270L
sV\u6253\u6e38\u620f
p3272
L3271L
sV\u70ed\u60c5\u5e2e\u52a9
p3273
L3272L
sV\u6df1\u5733\u5927\u5b66
p3274
L3273L
sV\u51b2\u7a81\u5730\u533a
p3275
L3274L
sV\u6295\u8bc9\u8005
p3276
L3275L
sV\u7cfb\u7edf\u542f\u52a8
p3277
L3276L
sV\u9009\u62e8
p3278
L3277L
sV\u5546\u4e1a\u79fb\u6c11
p3279
L3278L
sV\u7b49\u5f85\u65f6\u95f4
p3280
L3279L
sV\u5f20\u54f2
p3281
L3280L
sV\u6b63\u7ad9
p3282
L3281L
sV\u4e4b\u91cd
p3283
L3282L
sV\u6536\u94f6\u5458
p3284
L3283L
sV\u6570\u5b66\u8003\u8bd5
p3285
L3284L
sV\u5e15\u8428\u8fea\u7eb3
p3286
L3285L
sV\u5854\u65af\u9a6c\u5c3c\u4e9a\u5dde
p3287
L3286L
sV\u53d1\u5eca
p3288
L3287L
sV\u7537\u5973\u751f
p3289
L3288L
sV\u57c3\u514b\u585e\u7279
p3290
L3289L
sV\u4e13\u7528\u7ae0
p3291
L3290L
sV\u6d88\u534f
p3292
L3291L
sV\u51b2\u6d6a\u677f
p3293
L3292L
sV\u5317\u4eac\u822a\u5929
p3294
L3293L
sV\u8bfe\u5916\u9605\u8bfb
p3295
L3294L
sV\u96c5\u601d
p3296
L3295L
sV\u82f1\u56fd\u5185\u653f\u90e8
p3297
L3296L
sV\u51ef\u6587
p3298
L3297L
sV\u6253\u57fa\u7840
p3299
L3298L
sV\u9b41\u7701
p3300
L3299L
sV\u5fb7\u798f
p3301
L3300L
sV\u5f00\u53d1\u6280\u672f
p3302
L3301L
sV\u4e2d\u95f4\u4ef6
p3303
L3302L
sV\u5723\u6597\u58eb
p3304
L3303L
sV\u51fa\u56fd\u65f6
p3305
L3304L
sV\u5c0f\u5973\u751f
p3306
L3305L
sV\u652f\u6491\u7269
p3307
L3306L
sV\u624b\u672f\u8fc7\u7a0b
p3308
L3307L
sV\u67dc\u5458
p3309
L3308L
sV\u501f\u8bb0
p3310
L3309L
sV\u6b62\u4ed8
p3311
L3310L
sV\u5165\u5883\u7b7e\u8bc1
p3312
L3311L
sV\u6c47\u6b3e\u4eba
p3313
L3312L
sV\u4ee3\u5ba2
p3314
L3313L
sV\u901a\u5b58\u901a\u5151
p3315
L3314L
sV\u6574\u5b58\u6574\u53d6
p3316
L3315L
sV\u8d35\u5bbe\u5361
p3317
L3316L
sV\u8be5\u5361
p3318
L3317L
sV\u68a6\u60f3\u5bb6
p3319
L3318L
sV\u8054\u7cfb\u5730\u5740
p3320
L3319L
sV\u6e2f\u6fb3\u53f0\u5730\u533a
p3321
L3320L
sV\u4ed6\u884c
p3322
L3321L
sV\u67dc\u9762
p3323
L3322L
sV\u7ed3\u5a5a\u7684\u4eba
p3324
L3323L
sV\u5723\u5df4\u5df4\u62c9
p3325
L3324L
sV\u6c47\u91d1
p3326
L3325L
sV\u65e5\u5411
p3327
L3326L
sV\u4e2a\u7701
p3328
L3327L
sV\u6307\u5bfc\u8001\u5e08
p3329
L3328L
sV\u6b27\u7f8e\u4eba
p3330
L3329L
sV\u5361\u6301\u5361
p3331
L3330L
sV\u7535\u6c47
p3332
L3331L
sV\u6b21\u8d37
p3333
L3332L
sV\u5f20\u5361
p3334
L3333L
sV\u522e\u4f24
p3335
L3334L
sV\u52a0\u62ff\u5927\u5143
p3336
L3335L
sV\u91cd\u6d0b
p3337
L3336L
sV\u79ef\u5206\u6362
p3338
L3337L
sV\u4e07\u4e8b\u8fbe
p3339
L3338L
sV\u58a8\u5c14\u672c\u5927\u5b66
p3340
L3339L
sV\u9884\u501f
p3341
L3340L
sV\u62a5\u7a0e
p3342
L3341L
sV\u5047\u6587\u51ed
p3343
L3342L
sV\u7ed3\u4e1a\u8bc1\u4e66
p3344
L3343L
sV\u7559\u4e2a\u5fc3\u773c
p3345
L3344L
sV\u5e8a\u4e0a\u7528\u54c1
p3346
L3345L
sV\u4e2d\u624d
p3347
L3346L
sV\u5370\u5730\u5b89
p3348
L3347L
sV\u52a9\u4eba
p3349
L3348L
sV\u9999\u6e2f\u57ce\u5e02\u5927\u5b66
p3350
L3349L
sV\u540e\u80fd
p3351
L3350L
sV\u5174\u8da3\u73ed
p3352
L3351L
sV\u6d77\u6d0b\u5927\u5b66
p3353
L3352L
sV\u5eb7\u5948\u5c14
p3354
L3353L
sV\u5361\u8010\u57fa
p3355
L3354L
sV\u9ad8\u8003\u843d\u699c
p3356
L3355L
sV\u4f1a\u4ed8
p3357
L3356L
sV\u8d2a\u4fbf\u5b9c
p3358
L3357L
sV\u540e\u6094\u4e0d\u5df2
p3359
L3358L
sV\u62db\u751f\u7b80\u7ae0
p3360
L3359L
sV\u7f8e\u56fd\u79fb\u6c11
p3361
L3360L
sV\u6027\u683c\u5185\u5411
p3362
L3361L
sV\u6e05\u534e\u5317\u5927
p3363
L3362L
sV\u6bd4\u8f83\u987a\u5229
p3364
L3363L
sV\u4e2a\u4eba\u6536\u5165
p3365
L3364L
sV\u963f\u5c14\u4f2f\u8fbe
p3366
L3365L
sV\u6765\u7f8e
p3367
L3366L
sV\u672c\u79d1\u4e13\u4e1a
p3368
L3367L
sV\u4e3b\u64ad
p3369
L3368L
sV\u7535\u8bdd\u5361
p3370
L3369L
sV\u6821\u9886\u5bfc
p3371
L3370L
sV\u4e00\u81f3
p3372
L3371L
sV\u8fdb\u6821
p3373
L3372L
sV\u5e94\u5b63
p3374
L3373L
sV\u5f55\u53d6\u8005
p3375
L3374L
sV\u7fa4\u53d1
p3376
L3375L
sV\u672c\u79d1\u6bd5\u4e1a
p3377
L3376L
sV\u7f8e\u98df\u8282
p3378
L3377L
sV\u6253\u5de5\u65cf
p3379
L3378L
sV\u5168\u82f1\u6587
p3380
L3379L
sV\u6027\u89e3\u653e
p3381
L3380L
sV\u9886\u517b
p3382
L3381L
sV\u539f\u521b\u6027
p3383
L3382L
sV\u8ffd\u5bfb\u7740
p3384
L3383L
sV\u656c\u544a
p3385
L3384L
sV\u661f\u9645\u4e89\u9738
p3386
L3385L
sV\u627c\u8155\u53f9\u606f
p3387
L3386L
sV\u548c\u96c5\u601d
p3388
L3387L
sV\u516d\u4e03\u6210
p3389
L3388L
sV\u6821\u56ed\u7f51
p3390
L3389L
sV\u8f85\u5bfc\u73ed
p3391
L3390L
sV\u4eba\u624d\u6d41\u5931
p3392
L3391L
sV\u5965\u91cc\u8428\u90a6
p3393
L3392L
sV\u5bfc\u822a\u7f51
p3394
L3393L
sV\u6253\u7834\u7eaa\u5f55
p3395
L3394L
sV\u5168\u5956
p3396
L3395L
sV\u5409\u5e03\u68ee
p3397
L3396L
sV\u65c5\u884c\u56e2
p3398
L3397L
sV\u5218\u6770
p3399
L3398L
sV\u5927\u6750\u5c0f\u7528
p3400
L3399L
sV\u56db\u79d2\u949f
p3401
L3400L
sV\u905b\u5f2f
p3402
L3401L
sV\u9996\u9970\u5e97
p3403
L3402L
sV\u5468\u540e
p3404
L3403L
sV\u8f6f\u7cd6
p3405
L3404L
sV\u8d77\u76b1
p3406
L3405L
sV\u6709\u8fd1
p3407
L3406L
sV\u65e5\u504f\u98df
p3408
L3407L
sV\u9732\u897f
p3409
L3408L
sV\u5b66\u4f4d\u8bc1\u4e66
p3410
L3409L
sV\u8e0f\u5165\u793e\u4f1a
p3411
L3410L
sV\u5f00\u886b
p3412
L3411L
sV\u89c9\u5f97\u5f88\u6ca1
p3413
L3412L
sV\u65f7\u8bfe
p3414
L3413L
sV\u6765\u6fb3
p3415
L3414L
sV\u6253\u9884\u9632\u9488
p3416
L3415L
sV\u7f29\u7a84
p3417
L3416L
sV\u52a0\u62ff\u5927\u653f\u5e9c
p3418
L3417L
sV\u6797\u7433
p3419
L3418L
sV\u521d\u8d5b
p3420
L3419L
sV\u8dbe\u9ad8\u6c14\u6602
p3421
L3420L
sV\u7a7a\u767d\u70b9
p3422
L3421L
sV\u5c0f\u7a8d\u95e8
p3423
L3422L
sV\u91cd\u70b9\u7ebf
p3424
L3423L
sV\u7a0e\u5355
p3425
L3424L
sV\u66fc\u5fb7\u5c14
p3426
L3425L
sV\u5b9e\u73b0\u7406\u60f3
p3427
L3426L
sV\u68ee\u8bf4
p3428
L3427L
sV\u5bc4\u5bbf\u5236
p3429
L3428L
sV\u6c89\u5bc2\u5df2\u4e45
p3430
L3429L
sV\u52a0\u62ff\u5927\u7c4d
p3431
L3430L
sV\u845b\u5148\u751f
p3432
L3431L
sV\u9ed1\u5de5
p3433
L3432L
sV\u8fc7\u5173\u65a9\u5c06
p3434
L3433L
sV\u94a2\u952f
p3435
L3434L
sV\u6258\u798f\u8003\u8bd5
p3436
L3435L
sV\u975e\u76c8\u5229
p3437
L3436L
sV\u7f8e\u672f\u4e13\u4e1a
p3438
L3437L
sV\u4f18\u52a3\u52bf
p3439
L3438L
sV\u6572\u95e8\u7816
p3440
L3439L
sV\u5b66\u5e74
p3441
L3440L
sV\u672c\u79d1\u5b66\u5386
p3442
L3441L
sV\u6d74\u8863
p3443
L3442L
sV\u540d\u724c\u670d\u9970
p3444
L3443L
sV\u666e\u67e5\u5c40
p3445
L3444L
sV\u5218\u521a
p3446
L3445L
sV\u63d2\u753b
p3447
L3446L
sV\u5206\u5b50\u751f\u7269\u5b66\u5bb6
p3448
L3447L
sV\u53ea\u6536
p3449
L3448L
sV\u7f51\u7edc\u7248
p3450
L3449L
sV\u4f60\u522b
p3451
L3450L
sV\u7f8e\u56fd\u53f8\u6cd5\u90e8
p3452
L3451L
sV\u6587\u90e8
p3453
L3452L
sV\u7f8e\u56fd\u52a0\u5dde\u5927\u5b66\u6d1b\u6749\u77f6\u5206\u6821
p3454
L3453L
sV\u4e2d\u7ea6
p3455
L3454L
sV\u5218\u8001\u5e08
p3456
L3455L
sV\u51f9\u51f8\u611f
p3457
L3456L
sV\u51b0\u5c9b\u514b\u6717
p3458
L3457L
sV\u672a\u6765\u6d3e
p3459
L3458L
sV\u591a\u82b1\u94b1
p3460
L3459L
sV\u96be\u5165
p3461
L3460L
sV\u83b7\u53d1
p3462
L3461L
sV\u65e5\u5230
p3463
L3462L
sV\u5927\u964d
p3464
L3463L
sV\u9ad8\u6280\u80fd
p3465
L3464L
sV\u66f2\u6298\u79bb\u5947
p3466
L3465L
sV\u620f\u7801
p3467
L3466L
sV\u5c0f\u7968
p3468
L3467L
sV\u8ba1\u5212\u6570
p3469
L3468L
sV\u65b0\u4f1a\u5458
p3470
L3469L
sV\u5b8c\u540e
p3471
L3470L
sV\u5fc5\u8fbe
p3472
L3471L
sV\u5947\u601d\u5999\u60f3
p3473
L3472L
sV\u6770\u594e\u7433
p3474
L3473L
sV\u79fb\u9664
p3475
L3474L
sV\u76db\u60c5\u6b3e\u5f85
p3476
L3475L
sV\u5212\u7ed9
p3477
L3476L
sV\u4e2d\u8bf4
p3478
L3477L
sV\u89c2\u5149\u5ba2
p3479
L3478L
sV\u732b\u54aa
p3480
L3479L
sV\u516c\u8bc9\u65b9
p3481
L3480L
sV\u9a7e\u8f66\u8005
p3482
L3481L
sV\u7533\u8bf7\u91cf
p3483
L3482L
sV\u4eba\u5230
p3484
L3483L
sV\u5171\u5411
p3485
L3484L
sV\u76ee\u6807\u6027
p3486
L3485L
sV\u987a\u9053
p3487
L3486L
sV\u5750\u516c\u8f66
p3488
L3487L
sV\u5438\u98df\u6bd2\u54c1
p3489
L3488L
sV\u6821\u89c4
p3490
L3489L
sV\u8d29\u5356\u6bd2\u54c1
p3491
L3490L
sV\u5b8c\u7f8e\u4e3b\u4e49
p3492
L3491L
sV\u6709\u521b\u9020\u529b
p3493
L3492L
sV\u6b7b\u673a
p3494
L3493L
sV\u7ecf\u8fc7\u57f9\u8bad
p3495
L3494L
sV\u5f55\u5f71\u5e26
p3496
L3495L
sV\u7f34\u4ea4
p3497
L3496L
sV\u56fd\u6c11\u7d20\u8d28
p3498
L3497L
sV\u9999\u6e2f\u56de\u5f52
p3499
L3498L
sV\u4e0d\u529e
p3500
L3499L
sV\u57c3\u91cc\u68ee
p3501
L3500L
sV\u4e54\u5e03\u65af
p3502
L3501L
sV\u4fbf\u6210
p3503
L3502L
sV\u8b66\u7b1b
p3504
L3503L
sV\u78a7\u6602\u4e1d
p3505
L3504L
sV\u5e03\u5170\u59ae
p3506
L3505L
sV\u56de\u5bb6\u8def\u4e0a
p3507
L3506L
sV\u89c2\u5149\u65c5\u6e38
p3508
L3507L
sV\u5c0a\u5e08\u91cd\u6559
p3509
L3508L
sV\u5f88\u751c
p3510
L3509L
sV\u9053\u5fb7\u611f
p3511
L3510L
sV\u7279\u62a4
p3512
L3511L
sV\u6700\u68d2
p3513
L3512L
sV\u7f8e\u56fd\u534e\u76db\u987f\u5927\u5b66
p3514
L3513L
sV\u5b58\u6d3b\u671f
p3515
L3514L
sV\u9ebb\u751f\u592a\u90ce
p3516
L3515L
sV\u5b66\u59d0
p3517
L3516L
sV\u56db\u662f
p3518
L3517L
sV\u95ee\u8d23
p3519
L3518L
sV\u5df4\u8482
p3520
L3519L
sV\u9009\u4fee\u8bfe
p3521
L3520L
sV\u7535\u89c6\u76f4\u64ad
p3522
L3521L
sV\u6c49\u666e\u987f
p3523
L3522L
sV\u624b\u63d0\u888b
p3524
L3523L
sV\u81ea\u638f\u8170\u5305
p3525
L3524L
sV\u76d8\u53d1
p3526
L3525L
sV\u8427\u8537
p3527
L3526L
sV\u65f6\u5c1a\u670d\u9970
p3528
L3527L
sV\u5165\u8d27
p3529
L3528L
sV\u65f6\u88c5\u5468
p3530
L3529L
sV\u597d\u642d\u6863
p3531
L3530L
sV\u6625\u5929\u6c14\u606f
p3532
L3531L
sV\u73e0\u9970
p3533
L3532L
sV\u9177\u611f
p3534
L3533L
sV\u88e4\u889c
p3535
L3534L
sV\u670d\u88c5\u754c
p3536
L3535L
sV\u8f6f\u76ae
p3537
L3536L
sV\u60f9\u4eba\u7231
p3538
L3537L
sV\u5bbd\u80a9
p3539
L3538L
sV\u663e\u7626
p3540
L3539L
sV\u51e0\u5b63
p3541
L3540L
sV\u5c0f\u9ed1\u88d9
p3542
L3541L
sV\u6821\u5fbd
p3543
L3542L
sV\u82ad\u857e\u821e\u978b
p3544
L3543L
sV\u675f\u8eab
p3545
L3544L
sV\u8d85\u77ed\u88d9
p3546
L3545L
sV\u6bdb\u5462
p3547
L3546L
sV\u77ed\u5916\u5957
p3548
L3547L
sV\u7a7f\u4e0d\u51fa
p3549
L3548L
sV\u4e00\u534a\u5904
p3550
L3549L
sV\u957f\u889c
p3551
L3550L
sV\u5355\u8c03\u65e0\u5473
p3552
L3551L
sV\u624b\u94fe
p3553
L3552L
sV\u7f69\u676f
p3554
L3553L
sV\u65e0\u80a9\u5e26
p3555
L3554L
sV\u900f\u89c6\u88c5
p3556
L3555L
sV\u7a7f\u7740\u8005
p3557
L3556L
sV\u65f6\u88c5\u79c0
p3558
L3557L
sV\u732b\u6b65
p3559
L3558L
sV\u5361\u5176\u8272
p3560
L3559L
sV\u82d7\u6761\u8eab\u6750
p3561
L3560L
sV\u5355\u7a7f
p3562
L3561L
sV\u5c0f\u6597\u7bf7
p3563
L3562L
sV\u9ad8\u7b52\u9774
p3564
L3563L
sV\u8896\u5957
p3565
L3564L
sV\u8bb8\u8339\u82b8
p3566
L3565L
sV\u6094\u4e4b\u83ab\u53ca
p3567
L3566L
sV\u809a\u8169
p3568
L3567L
sV\u6bdb\u9886
p3569
L3568L
sV\u68c9\u670d
p3570
L3569L
sV\u9488\u7ec7\u886b
p3571
L3570L
sV\u70ed\u8fa3
p3572
L3571L
sV\u9ad8\u6311
p3573
L3572L
sV\u77ed\u6b3e
p3574
L3573L
sV\u7248\u578b
p3575
L3574L
sV\u683c\u5b50\u88d9
p3576
L3575L
sV\u6bdb\u886b
p3577
L3576L
sV\u51cf\u9f84
p3578
L3577L
sV\u7f8e\u7709
p3579
L3578L
sV\u98ce\u8863
p3580
L3579L
sV\u8d58\u8089
p3581
L3580L
sV\u4e0b\u534a\u8eab
p3582
L3581L
sV\u5377\u8fb9
p3583
L3582L
sV\u5973\u4eba\u5473
p3584
L3583L
sV\u957f\u9774
p3585
L3584L
sV\u5e73\u5e95\u978b
p3586
L3585L
sV\u7d27\u8eab\u80f8\u8863
p3587
L3586L
sV\u8759\u8760\u886b
p3588
L3587L
sV\u5e3d\u886b
p3589
L3588L
sV\u5355\u978b
p3590
L3589L
sV\u771f\u4eba\u79c0
p3591
L3590L
sV\u4ed4\u88e4
p3592
L3591L
sV\u88d9\u6446
p3593
L3592L
sV\u957f\u56f4\u5dfe
p3594
L3593L
sV\u9888\u95f4
p3595
L3594L
sV\u767e\u642d
p3596
L3595L
sV\u70df\u7070\u8272
p3597
L3596L
sV\u516d\u5b97
p3598
L3597L
sV\u77ed\u5927\u8863
p3599
L3598L
sV\u5305\u8eab
p3600
L3599L
sV\u6ee1\u6ea2
p3601
L3600L
sV\u626e\u9177
p3602
L3601L
sV\u7a7f\u80fd
p3603
L3602L
sV\u6574\u8eab
p3604
L3603L
sV\u4fcf\u4f73\u4eba
p3605
L3604L
sV\u73e0\u94fe
p3606
L3605L
sV\u659c\u80a9
p3607
L3606L
sV\u8f83\u7626
p3608
L3607L
sV\u5b9d\u84dd\u8272
p3609
L3608L
sV\u6000\u65e7\u611f
p3610
L3609L
sV\u4e1d\u889c
p3611
L3610L
sV\u7c97\u817f
p3612
L3611L
sV\u80f8\u8863
p3613
L3612L
sV\u8fa3\u59b9
p3614
L3613L
sV\u901a\u52e4
p3615
L3614L
sV\u5ba0\u7231\u6709\u52a0
p3616
L3615L
sV\u8273\u4e3d\u593a\u76ee
p3617
L3616L
sV\u642d\u6cd5
p3618
L3617L
sV\u5916\u5957
p3619
L3618L
sV\u9b54\u9b3c\u8eab\u6750
p3620
L3619L
sV\u5e05\u6027
p3621
L3620L
sV\u4e1d\u7f0e
p3622
L3621L
sV\u6f6e\u4eba
p3623
L3622L
sV\u725b\u4ed4\u88d9
p3624
L3623L
sV\u65f6\u5c1a\u5973\u6027
p3625
L3624L
sV\u76ae\u8349
p3626
L3625L
sV\u89c1\u9ad8\u4f4e
p3627
L3626L
sV\u50bb\u50bb\u7684
p3628
L3627L
sV\u96ea\u7eba
p3629
L3628L
sV\u9753\u7167
p3630
L3629L
sV\u73af\u4fdd\u4e3b\u4e49\u8005
p3631
L3630L
sV\u8dd1\u978b
p3632
L3631L
sV\u597d\u978b
p3633
L3632L
sV\u6b3e\u578b
p3634
L3633L
sV\u793e\u4ea4\u754c
p3635
L3634L
sV\u7d27\u8eab\u88e4
p3636
L3635L
sV\u6bdb\u7ebf\u5e3d
p3637
L3636L
sV\u4f1a\u5458\u4e2d\u5fc3
p3638
L3637L
sV\u96c5\u8bd7\u5170\u9edb
p3639
L3638L
sV\u54c8\u68ee
p3640
L3639L
sV\u916c\u5bbe
p3641
L3640L
sV\u8d1d\u7eb3\u901a
p3642
L3641L
sV\u5404\u697c\u5c42
p3643
L3642L
sV\u5c48\u81e3\u6c0f
p3644
L3643L
sV\u5546\u5bb6
p3645
L3644L
sV\u767e\u8d27
p3646
L3645L
sV\u8d2d\u7269\u6ee1
p3647
L3646L
sV\u70b9\u5361
p3648
L3647L
sV\u591a\u7b14
p3649
L3648L
sV\u590d\u5174\u95e8
p3650
L3649L
sV\u661f\u5c55
p3651
L3650L
sV\u4e0b\u96ea\u5929
p3652
L3651L
sV\u77ed\u88d9
p3653
L3652L
sV\u6d3b\u6cfc\u53ef\u7231
p3654
L3653L
sV\u53cd\u9762\u6559\u6750
p3655
L3654L
sV\u76ae\u4ef6
p3656
L3655L
sV\u76ae\u5c14\u5361\u4e39
p3657
L3656L
sV\u7231\u7f8e\u4e3d
p3658
L3657L
sV\u51e0\u62db
p3659
L3658L
sV\u5c31\u804c\u5178\u793c
p3660
L3659L
sV\u65e0\u9886
p3661
L3660L
sV\u5355\u80a9
p3662
L3661L
sV\u5206\u88e4
p3663
L3662L
sV\u8303\u513f
p3664
L3663L
sV\u7b2c\u4e8c\u672c
p3665
L3664L
sV\u7231\u5973\u4eba
p3666
L3665L
sV\u4f4e\u8170
p3667
L3666L
sV\u90fd\u5e02\u5973\u6027
p3668
L3667L
sV\u65e5\u7cfb
p3669
L3668L
sV\u9762\u90e8\u8f6e\u5ed3
p3670
L3669L
sV\u767e\u8936
p3671
L3670L
sV\u5f81\u7a3f
p3672
L3671L
sV\u94dc\u5956
p3673
L3672L
sV\u5f81\u7a3f\u542f\u4e8b
p3674
L3673L
sV\u957f\u5927\u8863
p3675
L3674L
sV\u8868\u5e26
p3676
L3675L
sV\u6536\u8eab
p3677
L3676L
sV\u4fd0\u843d
p3678
L3677L
sV\u5176\u4e0a
p3679
L3678L
sV\u6587\u80f8
p3680
L3679L
sV\u6d89\u4e16\u672a\u6df1
p3681
L3680L
sV\u957f\u7b52\u889c
p3682
L3681L
sV\u5e05\u54e5\u7f8e\u5973
p3683
L3682L
sV\u5f53\u5b63
p3684
L3683L
sV\u9c7c\u5634
p3685
L3684L
sV\u6e10\u53d8\u8272
p3686
L3685L
sV\u5357\u9523\u9f13\u5df7
p3687
L3686L
sV\u5b8c\u7f8e\u65e0\u7455
p3688
L3687L
sV\u65bd\u534e\u6d1b
p3689
L3688L
sV\u884c\u52a8\u81ea\u5982
p3690
L3689L
sV\u66f2\u7ebf\u7f8e
p3691
L3690L
sV\u6700\u663e
p3692
L3691L
sV\u4f11\u95f2\u978b
p3693
L3692L
sV\u6ce1\u9762
p3694
L3693L
sV\u9cc4\u9c7c\u76ae
p3695
L3694L
sV\u7279\u5356
p3696
L3695L
sV\u541b\u592a
p3697
L3696L
sV\u7b52\u88e4
p3698
L3697L
sV\u6bcf\u6ee1
p3699
L3698L
sV\u53cc\u5b89
p3700
L3699L
sV\u767e\u5e74\u597d\u5408
p3701
L3700L
sV\u7ed1\u5e26
p3702
L3701L
sV\u8d85\u6a21
p3703
L3702L
sV\u9ebb\u8c46
p3704
L3703L
sV\u540a\u5e26\u88d9
p3705
L3704L
sV\u7389\u5170\u6cb9
p3706
L3705L
sV\u8fc7\u5b63
p3707
L3706L
sV\u9b54\u7faf\u5ea7
p3708
L3707L
sV\u9a6c\u5c3e\u8fab
p3709
L3708L
sV\u80cc\u5e26\u88e4
p3710
L3709L
sV\u663e\u9ad8
p3711
L3710L
sV\u9999\u80a9
p3712
L3711L
sV\u4e2d\u56fd\u670d\u88c5\u534f\u4f1a
p3713
L3712L
sV\u6298\u540e
p3714
L3713L
sV\u4e94\u4e00
p3715
L3714L
sV\u65b0\u67dc
p3716
L3715L
sV\u68a6\u7279\u5a07
p3717
L3716L
sV\u4ef6\u5957
p3718
L3717L
sV\u592a\u5e73\u6d0b\u767e\u8d27
p3719
L3718L
sV\u5355\u67dc
p3720
L3719L
sV\u53f7\u7ebf
p3721
L3720L
sV\u6298\u6263
p3722
L3721L
sV\u4e13\u95e8\u5e97
p3723
L3722L
sV\u8fb9\u73a9
p3724
L3723L
sV\u5a07\u97f5\u8bd7
p3725
L3724L
sV\u8d44\u751f\u5802
p3726
L3725L
sV\u57ab\u80a9
p3727
L3726L
sV\u6d88\u8017\u54c1
p3728
L3727L
sV\u76ca\u7530
p3729
L3728L
sV\u65b0\u98ce\u5c1a
p3730
L3729L
sV\u5317\u4eac\u670d\u88c5\u5b66\u9662
p3731
L3730L
sV\u54c1\u724c\u8bbe\u8ba1
p3732
L3731L
sV\u6e05\u534e\u5927\u5b66\u7f8e\u672f\u5b66\u9662
p3733
L3732L
sV\u7ae5\u978b
p3734
L3733L
sV\u80fd\u767b
p3735
L3734L
sV\u738b\u6cbb\u56fd
p3736
L3735L
sV\u9999\u6e2f\u7acb\u6cd5\u4f1a
p3737
L3736L
sV\u6b23\u559c\u4e07\u5206
p3738
L3737L
sV\u86c7\u7eb9
p3739
L3738L
sV\u5728\u4eac\u5f00\u5e55
p3740
L3739L
sV\u9ea6\u5f53\u5a1c
p3741
L3740L
sV\u670d\u9970
p3742
L3741L
sV\u83b1\u5361
p3743
L3742L
sV\u8fd9\u6279
p3744
L3743L
sV\u5e7f\u544a\u90e8
p3745
L3744L
sV\u5e84\u80dc\u5d07\u5149\u767e\u8d27
p3746
L3745L
sV\u65f6\u5c1a\u6027
p3747
L3746L
sV\u5d07\u5149
p3748
L3747L
sV\u5927\u51cf\u4ef7
p3749
L3748L
sV\u4eba\u5e94
p3750
L3749L
sV\u5f80\u671f
p3751
L3750L
sV\u4ee3\u4ee3\u4f20
p3752
L3751L
sV\u5bfc\u8bed
p3753
L3752L
sV\u9879\u76ee\u9009\u62e9
p3754
L3753L
sV\u672c\u5c3c\u8fea\u514b
p3755
L3754L
sV\u7eb1\u88d9
p3756
L3755L
sV\u73a9\u8f6c
p3757
L3756L
sV\u771f\u7ef4\u65af
p3758
L3757L
sV\u9cc4\u9c7c\u6064
p3759
L3758L
sV\u5c3c\u8bfa
p3760
L3759L
sV\u5c14\u767b
p3761
L3760L
sV\u6210\u90fd\u7535\u89c6\u53f0
p3762
L3761L
sV\u591c\u573a
p3763
L3762L
sV\u7f8e\u60e0
p3764
L3763L
sV\u5b89\u5ba4
p3765
L3764L
sV\u7f51\u7edc\u5e7f\u544a
p3766
L3765L
sV\u90bb\u5bb6\u5973\u5b69
p3767
L3766L
sV\u4f9d\u6ce2
p3768
L3767L
sV\u6362\u8d27
p3769
L3768L
sV\u7ea4\u7626
p3770
L3769L
sV\u5973\u88c5\u54c1\u724c
p3771
L3770L
sV\u5c0f\u886b
p3772
L3771L
sV\u53d1\u5939
p3773
L3772L
sV\u4eb2\u53cb\u56e2
p3774
L3773L
sV\u5973\u4eba\u7231
p3775
L3774L
sV\u5947\u7f18
p3776
L3775L
sV\u7126\u7cd6
p3777
L3776L
sV\u7a0d\u957f
p3778
L3777L
sV\u5434\u6cd3
p3779
L3778L
sV\u6982\u5ff5\u8bbe\u8ba1
p3780
L3779L
sV\u7279\u5356\u573a
p3781
L3780L
sV\u5e05\u9177
p3782
L3781L
sV\u65f6\u5c1a\u8d44\u8baf
p3783
L3782L
sV\u79cb\u51ac\u88c5
p3784
L3783L
sV\u6027\u9a9a\u6270
p3785
L3784L
sV\u5927\u4e09\u5143
p3786
L3785L
sV\u5b66\u751f\u65cf
p3787
L3786L
sV\u9068\u6e38\u592a\u7a7a
p3788
L3787L
sV\u8fd9\u679a
p3789
L3788L
sV\u96ea\u7eba\u88d9
p3790
L3789L
sV\u5f17\u5229
p3791
L3790L
sV\u7231\u9a6c\u4ed5
p3792
L3791L
sV\u5927\u79c0
p3793
L3792L
sV\u6f6e\u5973
p3794
L3793L
sV\u7f51\u8d2d
p3795
L3794L
sV\u6700\u6613
p3796
L3795L
sV\u5149\u6cfd\u611f
p3797
L3796L
sV\u6545\u6211\u5728
p3798
L3797L
sV\u89e3\u6784\u4e3b\u4e49
p3799
L3798L
sV\u66f4\u591a\u4eba
p3800
L3799L
sV\u7528\u6237\u7fa4
p3801
L3800L
sV\u9080\u8bf7\u8d5b
p3802
L3801L
sV\u5305\u5305
p3803
L3802L
sV\u6587\u5316\u5c55
p3804
L3803L
sV\u8db3\u8e1d
p3805
L3804L
sV\u5999\u4e3d
p3806
L3805L
sV\u56f4\u8116
p3807
L3806L
sV\u5916\u8d38\u670d\u88c5
p3808
L3807L
sV\u8ba8\u4ef7
p3809
L3808L
sV\u7cbe\u5f69\u7edd\u4f26
p3810
L3809L
sV\u8d37\u8bb0\u5361
p3811
L3810L
sV\u8d22\u8272
p3812
L3811L
sV\u7cbe\u5f69\u6f14\u51fa
p3813
L3812L
sV\u72d7\u4ed4\u961f
p3814
L3813L
sV\u5986\u5bb9
p3815
L3814L
sV\u7535\u8111\u5c4f\u5e55
p3816
L3815L
sV\u674e\u4eae
p3817
L3816L
sV\u5927\u724c
p3818
L3817L
sV\u4e09\u89d2\u578b
p3819
L3818L
sV\u7bee\u7403\u978b
p3820
L3819L
sV\u6267\u5b50\u4e4b\u624b
p3821
L3820L
sV\u6309\u4e0b
p3822
L3821L
sV\u4e0b\u5b63
p3823
L3822L
sV\u79c9\u7740
p3824
L3823L
sV\u5927\u5230
p3825
L3824L
sV\u5206\u8d5b\u533a
p3826
L3825L
sV\u4f4e\u81f3
p3827
L3826L
sV\u6536\u85cf\u754c
p3828
L3827L
sV\u5965\u7f8e
p3829
L3828L
sV\u767e\u53d8
p3830
L3829L
sV\u514b\u8389\u4e1d
p3831
L3830L
sV\u597d\u611f\u5ea6
p3832
L3831L
sV\u603b\u670d\u52a1\u53f0
p3833
L3832L
sV\u5355\u6b21
p3834
L3833L
sV\u54ea\u6b3e
p3835
L3834L
sV\u80cc\u666f\u97f3\u4e50
p3836
L3835L
sV\u7231\u73a9
p3837
L3836L
sV\u5168\u8bb0\u5f55
p3838
L3837L
sV\u591a\u51cf
p3839
L3838L
sV\u65b0\u5f62\u6001
p3840
L3839L
sV\u5927\u62cd\u5356
p3841
L3840L
sV\u8457\u540d\u666f\u70b9
p3842
L3841L
sV\u65b0\u5b9e
p3843
L3842L
sV\u56de\u826f\u7389
p3844
L3843L
sV\u7b49\u4f60\u62ff
p3845
L3844L
sV\u624b\u888b
p3846
L3845L
sV\u7535\u8111\u5305
p3847
L3846L
sV\u5929\u5929\u5411\u4e0a
p3848
L3847L
sV\u5317\u4eac\u5546\u573a
p3849
L3848L
sV\u7eaa\u5ff5\u7248
p3850
L3849L
sV\u4e2d\u534e\u6148\u5584\u603b\u4f1a
p3851
L3850L
sV\u65e0\u4eba\u80fd\u654c
p3852
L3851L
sV\u597d\u5f00\u5fc3
p3853
L3852L
sV\u7f57\u838e
p3854
L3853L
sV\u83b1\u5fb7
p3855
L3854L
sV\u9999\u85b0
p3856
L3855L
sV\u519b\u6f14
p3857
L3856L
sV\u7f8e\u56fd\u52a1\u9662
p3858
L3857L
sV\u62e6\u622a\u5bfc\u5f39
p3859
L3858L
sV\u4fc4\u7f57\u65af\u56fd\u9645\u6587\u4f20\u7535\u8baf\u793e
p3860
L3859L
sV\u4fc4\u519b\u65b9
p3861
L3860L
sV\u7d22\u5951
p3862
L3861L
sV\u4fc4\u7f57\u65af\u56fd\u9632\u90e8
p3863
L3862L
sV\u6885\u5fb7\u97e6
p3864
L3863L
sV\u4fc4\u65b0\u7f51
p3865
L3864L
sV\u4fc4\u65b0\u793e
p3866
L3865L
sV\u8054\u5408\u6f14\u4e60
p3867
L3866L
sV\u9a6c\u5361\u7f57\u592b
p3868
L3867L
sV\u5fc3\u7406\u75be\u75c5
p3869
L3868L
sV\u6cd5\u65b0\u793e
p3870
L3869L
sV\u5370\u5ea6\u56fd\u9632\u90e8
p3871
L3870L
sV\u79f0\u5176
p3872
L3871L
sV\u957f\u5f81\u4e8c\u53f7
p3873
L3872L
sV\u5b59\u81ea\u6cd5
p3874
L3873L
sV\u6df1\u7a7a
p3875
L3874L
sV\u9632\u62a4\u7f51
p3876
L3875L
sV\u7f16\u5217
p3877
L3876L
sV\u8d77\u706b\u71c3\u70e7
p3878
L3877L
sV\u519b\u8d2d
p3879
L3878L
sV\u65e5\u79f0
p3880
L3879L
sV\u7a7a\u4e2d\u4ea4\u901a
p3881
L3880L
sV\u5760\u673a
p3882
L3881L
sV\u8fd9\u8258
p3883
L3882L
sV\u91c7\u8d2d\u8ba1\u5212
p3884
L3883L
sV\u9ad8\u8f76\u519b
p3885
L3884L
sV\u65e5\u8baf
p3886
L3885L
sV\u4e2d\u56fd\u519b\u529b
p3887
L3886L
sV\u7f8e\u519b\u65b9
p3888
L3887L
sV\u6218\u6597\u8230
p3889
L3888L
sV\u6881\u65ed
p3890
L3889L
sV\u65e5\u672c\u81ea\u536b\u961f
p3891
L3890L
sV\u5b9e\u5f39\u6f14\u4e60
p3892
L3891L
sV\u90e8\u5728
p3893
L3892L
sV\u8c22\u5c14\u4e45
p3894
L3893L
sV\u4fc4\u56fd\u9632\u90e8
p3895
L3894L
sV\u4e0a\u79f0
p3896
L3895L
sV\u8042\u4e91
p3897
L3896L
sV\u91cd\u7ea6
p3898
L3897L
sV\u8428\u62c9\u6258\u592b\u5dde
p3899
L3898L
sV\u8042\u4e91\u9e4f
p3900
L3899L
sV\u5fb7\u91cc\u514b
p3901
L3900L
sV\u5c04\u51fb\u8bad\u7ec3
p3902
L3901L
sV\u67e5\u97e6\u65af
p3903
L3902L
sV\u80e1\u552f\u654f
p3904
L3903L
sV\u505c\u98de
p3905
L3904L
sV\u5370\u5ea6\u62a5\u4e1a\u6258\u62c9\u65af
p3906
L3905L
sV\u6d66\u6d1e
p3907
L3906L
sV\u5bf9\u671d
p3908
L3907L
sV\u97e9\u8054\u793e
p3909
L3908L
sV\u97e9\u671d
p3910
L3909L
sV\u671d\u519b
p3911
L3910L
sV\u56fd\u9645\u6587\u4f20\u7535\u8baf\u793e
p3912
L3911L
sV\u9ebb\u751f
p3913
L3912L
sV\u539f\u5219\u7acb\u573a
p3914
L3913L
sV\u6821\u7ea7
p3915
L3914L
sV\u65e5\u672c\u822a\u7a7a\u81ea\u536b\u961f
p3916
L3915L
sV\u5171\u540c\u793e
p3917
L3916L
sV\u5916\u7535\u62a5\u9053
p3918
L3917L
sV\u957f\u7ea6
p3919
L3918L
sV\u519b\u552e
p3920
L3919L
sV\u97e9\u519b
p3921
L3920L
sV\u5760\u6bc1
p3922
L3921L
sV\u5206\u8bb8
p3923
L3922L
sV\u592a\u7a7a\u8239
p3924
L3923L
sV\u9ad8\u8d85\u97f3\u901f
p3925
L3924L
sV\u6b66\u5668\u5316
p3926
L3925L
sV\u7f8e\u4fc4
p3927
L3926L
sV\u5fb7\u65af\u5766
p3928
L3927L
sV\u4e07\u82f1\u5c3a
p3929
L3928L
sV\u4ebf\u52a0\u5143
p3930
L3929L
sV\u5218\u607a
p3931
L3930L
sV\u62c9\u54cd
p3932
L3931L
sV\u674e\u5b97\u6cfd
p3933
L3932L
sV\u8428\u8482
p3934
L3933L
sV\u97e9\u7f8e\u519b
p3935
L3934L
sV\u8bd5\u6c34
p3936
L3935L
sV\u767e\u5343
p3937
L3936L
sV\u8be5\u578b
p3938
L3937L
sV\u5361\u6885\u4f26
p3939
L3938L
sV\u4fc4\u7f8e
p3940
L3939L
sV\u6768\u6d01\u7bea
p3941
L3940L
sV\u59dc\u745c
p3942
L3941L
sV\u8d8a\u65b9
p3943
L3942L
sV\u79f0\u7f8e
p3944
L3943L
sV\u767d\u7fce\u5c9b
p3945
L3944L
sV\u9ad8\u7ea6
p3946
L3945L
sV\u65f6\u906d
p3947
L3946L
sV\u7f8e\u5c06
p3948
L3947L
sV\u7ef4\u5409\u5c3c\u4e9a
p3949
L3948L
sV\u6cd5\u822a
p3950
L3949L
sV\u6570\u767e\u4ebf\u7f8e\u5143
p3951
L3950L
sV\u738b\u6b22
p3952
L3951L
sV\u5f20\u4e50
p3953
L3952L
sV\u5c14\u91d1
p3954
L3953L
sV\u5b81\u8fb9
p3955
L3954L
sV\u4e89\u8bae\u5730\u533a
p3956
L3955L
sV\u7ef4\u683c
p3957
L3956L
sV\u6570\u5343\u4ebf\u7f8e\u5143
p3958
L3957L
sV\u7f8e\u56fd\u9632
p3959
L3958L
sV\u7814\u53d1\u90e8\u95e8
p3960
L3959L
sV\u9648\u70b3\u5fb7
p3961
L3960L
sV\u673a\u68b0\u6545\u969c
p3962
L3961L
sV\u643a\u540c
p3963
L3962L
sV\u5bf9\u5206
p3964
L3963L
sV\u8fd8\u79f0
p3965
L3964L
sV\u707e\u540e
p3966
L3965L
sV\u53f0\u5f53\u5c40
p3967
L3966L
sV\u738b\u91d1\u5e73
p3968
L3967L
sV\u7eaa\u5ff5\u5927\u4f1a
p3969
L3968L
sV\u53f0\u5a92
p3970
L3969L
sV\u5171\u8fdb\u5348\u9910
p3971
L3970L
sV\u4e0a\u6f06
p3972
L3971L
sV\u5fb7\u6c38\u5065
p3973
L3972L
sV\u738b\u6b23
p3974
L3973L
sV\u8bbf\u97e9
p3975
L3974L
sV\u65b0\u5e72\u7ebf
p3976
L3975L
sV\u64ad\u51fa
p3977
L3976L
sV\u4eb2\u6c11\u515a
p3978
L3977L
sV\u5434\u6dd1\u73cd
p3979
L3978L
sV\u53f0\u519b\u65b9
p3980
L3979L
sV\u4fa8\u754c
p3981
L3980L
sV\u9648\u4e91\u6797
p3982
L3981L
sV\u534e\u822a
p3983
L3982L
sV\u7535\u5b50\u5a92\u4f53
p3984
L3983L
sV\u7814\u62df
p3985
L3984L
sV\u590d\u5236\u51fa
p3986
L3985L
sV\u9646\u59d4\u4f1a
p3987
L3986L
sV\u5434\u4f2f\u96c4
p3988
L3987L
sV\u8fb9\u68c0\u7ad9
p3989
L3988L
sV\u5f3a\u964d\u96e8
p3990
L3989L
sV\u5ba3\u5bfc
p3991
L3990L
sV\u9632\u603b
p3992
L3991L
sV\u7ca4\u6e2f
p3993
L3992L
sV\u66fe\u4fca\u534e
p3994
L3993L
sV\u519c\u59d4\u4f1a
p3995
L3994L
sV\u7acb\u9662
p3996
L3995L
sV\u97e6\u535a
p3997
L3996L
sV\u738b\u90c1\u7426
p3998
L3997L
sV\u6c88\u9e4f
p3999
L3998L
sV\u516c\u6295
p4000
L3999L
sV\u76d1\u5bdf\u9662\u957f
p4001
L4000L
sV\u5f85\u5904\u7406
p4002
L4001L
sV\u4fc3\u8bf7
p4003
L4002L
sV\u4ee5\u524d\u5e74\u5ea6
p4004
L4003L
sV\u53bf\u5e02\u957f
p4005
L4004L
sV\u6c5f\u4e19\u5764
p4006
L4005L
sV\u4fa6\u7ed3
p4007
L4006L
sV\u5305\u5546
p4008
L4007L
sV\u6fb3\u95e8\u7279\u533a\u653f\u5e9c
p4009
L4008L
sV\u60c5\u51b5\u5371\u6025
p4010
L4009L
sV\u6d4b\u62a5
p4011
L4010L
sV\u82b1\u83b2\u5e02
p4012
L4011L
sV\u5ef6\u6401
p4013
L4012L
sV\u5408\u6b22\u5c71
p4014
L4013L
sV\u8fd9\u8d77
p4015
L4014L
sV\u8d39\u6848
p4016
L4015L
sV\u906d\u62d2
p4017
L4016L
sV\u7f8e\u56fd\u56fd\u4f1a\u53c2\u8bae\u9662
p4018
L4017L
sV\u9648\u952e\u5174
p4019
L4018L
sV\u5de6\u624b\u8155
p4020
L4019L
sV\u53f0\u65e5
p4021
L4020L
sV\u5eb7\u592b
p4022
L4021L
sV\u7ca4\u6e2f\u6fb3
p4023
L4022L
sV\u4e09\u5730
p4024
L4023L
sV\u8fde\u63a5\u7ebf
p4025
L4024L
sV\u642d\u673a
p4026
L4025L
sV\u7206\u70b8\u54c1
p4027
L4026L
sV\u822a\u70b9
p4028
L4027L
sV\u5de5\u52a1
p4029
L4028L
sV\u6fb3\u95e8\u7279\u533a
p4030
L4029L
sV\u8d2a\u6e0e
p4031
L4030L
sV\u5ec9\u80fd
p4032
L4031L
sV\u8d8a\u91ce\u8d5b
p4033
L4032L
sV\u5185\u4e71\u5916\u60a3
p4034
L4033L
sV\u8d64\u67f1
p4035
L4034L
sV\u6fb3\u95e8\u5143
p4036
L4035L
sV\u63a5\u62a5
p4037
L4036L
sV\u4e13\u6848\u5c0f\u7ec4
p4038
L4037L
sV\u754c\u522b
p4039
L4038L
sV\u6bdb\u989d
p4040
L4039L
sV\u5bf9\u7f8e
p4041
L4040L
sV\u73b0\u573a\u8f6c\u64ad
p4042
L4041L
sV\u6025\u75c7\u5ba4
p4043
L4042L
sV\u5f81\u72b6
p4044
L4043L
sV\u9ec4\u777f\u9753
p4045
L4044L
sV\u9648\u81f4
p4046
L4045L
sV\u6fb3\u95e8\u65e5\u62a5
p4047
L4046L
sV\u5f3a\u800c\u6709\u529b
p4048
L4047L
sV\u5408\u4f5c\u65e0\u95f4
p4049
L4048L
sV\u9ad8\u68c0
p4050
L4049L
sV\u85c9\u6b64
p4051
L4050L
sV\u7279\u9996
p4052
L4051L
sV\u82f9\u679c\u65e5\u62a5
p4053
L4052L
sV\u4e24\u6781\u5316
p4054
L4053L
sV\u4e5d\u4e03
p4055
L4054L
sV\u5468\u5a77\u7389
p4056
L4055L
sV\u613f\u540c
p4057
L4056L
sV\u9f50\u5f6c
p4058
L4057L
sV\u793a\u8303\u8868\u6f14
p4059
L4058L
sV\u4e94\u662f
p4060
L4059L
sV\u94f6\u697c
p4061
L4060L
sV\u9001\u533b
p4062
L4061L
sV\u80e1\u6653\u4e49
p4063
L4062L
sV\u5e15\u7279\u7f57
p4064
L4063L
sV\u6234\u79c9\u56fd
p4065
L4064L
sV\u589e\u5217
p4066
L4065L
sV\u591a\u7c73\u5c3c\u514b
p4067
L4066L
sV\u9996\u679a
p4068
L4067L
sV\u5f20\u6714
p4069
L4068L
sV\u5171\u8d62
p4070
L4069L
sV\u594b\u52c7\u4e89\u5148
p4071
L4070L
sV\u5f20\u6021\u5b81
p4072
L4071L
sV\u8e66\u5e8a
p4073
L4072L
sV\u718a\u4e89\u8273
p4074
L4073L
sV\u7f8e\u56fd\u6c11\u4e3b\u515a
p4075
L4074L
sV\u62dc\u767b
p4076
L4075L
sV\u4e2d\u5854
p4077
L4076L
sV\u8d75\u5c0f\u5170
p4078
L4077L
sV\u4e2d\u97e9\u5173\u7cfb
p4079
L4078L
sV\u91d1\u724c\u699c
p4080
L4079L
sV\u5218\u8f76\u7476
p4081
L4080L
sV\u5b59\u5b87\u633a
p4082
L4081L
sV\u738b\u6caa\u5b81
p4083
L4082L
sV\u4e58\u4e13\u673a
p4084
L4083L
sV\u675c\u5c1a\u522b
p4085
L4084L
sV\u4e2d\u56fd\u5916\u4ea4\u90e8
p4086
L4085L
sV\u4ea4\u6362\u610f\u89c1
p4087
L4086L
sV\u5b59\u5955
p4088
L4087L
sV\u7b54\u8bb0\u8005\u95ee
p4089
L4088L
sV\u6241\u5bb6
p4090
L4089L
sV\u5168\u9762\u89e3\u51b3
p4091
L4090L
sV\u6731\u4e4b\u946b
p4092
L4091L
sV\u5357\u5965\u585e\u68af
p4093
L4092L
sV\u5ba1\u8ba1\u957f
p4094
L4093L
sV\u5434\u6676\u6676
p4095
L4094L
sV\u4e09\u8981
p4096
L4095L
sV\u674e\u83f2
p4097
L4096L
sV\u4e2d\u672a
p4098
L4097L
sV\u4f20\u7edf\u53cb\u8c0a
p4099
L4098L
sV\u5de8\u503a
p4100
L4099L
sV\u5b88\u5019\u591a\u65f6
p4101
L4100L
sV\u5546\u94f6
p4102
L4101L
sV\u4e39\u4f5b\u5e02
p4103
L4102L
sV\u82cf\u73ca
p4104
L4103L
sV\u7a81\u53d1\u72b6\u51b5
p4105
L4104L
sV\u9a6c\u6587\u5a77
p4106
L4105L
sV\u8f6c\u4e58
p4107
L4106L
sV\u4f7f\u9886\u9986
p4108
L4107L
sV\u6d77\u57fa\u4f1a
p4109
L4108L
sV\u5f00\u5b66\u5178\u793c
p4110
L4109L
sV\u66fe\u5229\u660e
p4111
L4110L
sV\u76d1\u7ba1\u53f8
p4112
L4111L
sV\u884c\u653f\u7f16\u5236
p4113
L4112L
sV\u6708\u5229\u7387
p4114
L4113L
sV\u6c11\u653f\u90e8
p4115
L4114L
sV\u6155\u514b\u5409
p4116
L4115L
sV\u6620\u79c0\u9547
p4117
L4116L
sV\u5c9b\u5185\u5916
p4118
L4117L
sV\u53f6\u76db\u8302
p4119
L4118L
sV\u4e0d\u5f97\u516c\u5f00
p4120
L4119L
sV\u53bb\u51fd
p4121
L4120L
sV\u4e0d\u7528\u8c22
p4122
L4121L
sV\u53d6\u5f97\u6210\u529f
p4123
L4122L
sV\u4e2d\u56fd\u822a\u5929\u79d1\u6280\u96c6\u56e2\u516c\u53f8
p4124
L4123L
sV\u592a\u539f\u536b\u661f\u53d1\u5c04\u4e2d\u5fc3
p4125
L4124L
sV\u8d22\u52a1\u53f8
p4126
L4125L
sV\u5218\u5955\u6e5b
p4127
L4126L
sV\u58f0\u8bf7
p4128
L4127L
sV\u5ba2\u8fd0\u8f66\u8f86
p4129
L4128L
sV\u6d77\u534f\u4f1a
p4130
L4129L
sV\u4e8b\u6545\u8d23\u4efb
p4131
L4130L
sV\u78c5\u91cd
p4132
L4131L
sV\u4eba\u6709
p4133
L4132L
sV\u65e5\u624d
p4134
L4133L
sV\u80a0\u80c3\u708e
p4135
L4134L
sV\u65c5\u6e38\u4e1a\u8005
p4136
L4135L
sV\u77ed\u4fe1\u606f
p4137
L4136L
sV\u82f1\u56fd\u961f
p4138
L4137L
sV\u804c\u6570
p4139
L4138L
sV\u6295\u6d3d\u4f1a
p4140
L4139L
sV\u738b\u5c90\u5c71
p4141
L4140L
sV\u6587\u5149
p4142
L4141L
sV\u4e2d\u5370\u5173\u7cfb
p4143
L4142L
sV\u9ed8\u514b\u5c14
p4144
L4143L
sV\u5e93\u9a6c\u5c14
p4145
L4144L
sV\u7a0b\u5fd7
p4146
L4145L
sV\u6fd2\u5371\u52a8\u7269
p4147
L4146L
sV\u56fd\u53f0\u529e
p4148
L4147L
sV\u8d23\u4efb\u4e8b\u6545
p4149
L4148L
sV\u664b\u6c5f\u5e02
p4150
L4149L
sV\u7b2c\u4e8c\u5341\u6761
p4151
L4150L
sV\u4e3b\u4f53\u8d44\u683c
p4152
L4151L
sV\u4e0b\u67b6
p4153
L4152L
sV\u8868\u793a\u9057\u61be
p4154
L4153L
sV\u627f\u529e\u4eba
p4155
L4154L
sV\u7eb3\u62c9\u4e9a\u5357
p4156
L4155L
sV\u56db\u8981
p4157
L4156L
sV\u6025\u9001
p4158
L4157L
sV\u5434\u5029
p4159
L4158L
sV\u88c1\u793a
p4160
L4159L
sV\u6316\u571f\u673a
p4161
L4160L
sV\u6682\u672a
p4162
L4161L
sV\u4e2d\u4ee5
p4163
L4162L
sV\u5931\u8e2a\u8005
p4164
L4163L
sV\u8054\u59d4\u4f1a
p4165
L4164L
sV\u6db2\u6001\u5976
p4166
L4165L
sV\u53f0\u5927\u533b\u9662
p4167
L4166L
sV\u4e94\u5341\u4e07\u5143
p4168
L4167L
sV\u63a7\u65b9
p4169
L4168L
sV\u75c5\u51b5
p4170
L4169L
sV\u56fd\u65b0\u529e
p4171
L4170L
sV\u8bd5\u7528\u671f
p4172
L4171L
sV\u8054\u5927\u4f1a\u8bae
p4173
L4172L
sV\u5f20\u6653\u677e
p4174
L4173L
sV\u65e5\u4ee5
p4175
L4174L
sV\u5c0f\u5df4
p4176
L4175L
sV\u6d89\u4e8b
p4177
L4176L
sV\u5473\u5168
p4178
L4177L
sV\u5976\u54c1
p4179
L4178L
sV\u516c\u8bc1\u4e66
p4180
L4179L
sV\u5c40\u673a\u5173
p4181
L4180L
sV\u8b66\u7f72
p4182
L4181L
sV\u4ec0\u4e48\u6e38\u620f
p4183
L4182L
sV\u5317\u5ddd\u53bf
p4184
L4183L
sV\u4eba\u7528
p4185
L4184L
sV\u9009\u767b
p4186
L4185L
sV\u590d\u71c3
p4187
L4186L
sV\u5de8\u87f9
p4188
L4187L
sV\u52b2\u821e\u56e2
p4189
L4188L
sV\u9e3f\u96c1\u4f20\u4e66
p4190
L4189L
sV\u843d\u5355
p4191
L4190L
sV\u5b64\u82b3\u81ea\u8d4f
p4192
L4191L
sV\u53d8\u4eae
p4193
L4192L
sV\u597d\u75db
p4194
L4193L
sV\u53d1\u6d88\u606f
p4195
L4194L
sV\u725b\u725b
p4196
L4195L
sV\u53cc\u9c7c
p4197
L4196L
sV\u65e7\u7231
p4198
L4197L
sV\u6295\u6000\u9001\u62b1
p4199
L4198L
sV\u5730\u5b88\u62a4
p4200
L4199L
sV\u662f\u6211\u592a
p4201
L4200L
sV\u5341\u4e8c\u5bab
p4202
L4201L
sV\u9a6c\u62c9\u677e\u5f0f
p4203
L4202L
sV\u77ed\u6d88\u606f
p4204
L4203L
sV\u65e0\u6570\u79cd
p4205
L4204L
sV\u7f8a\u513f
p4206
L4205L
sV\u6015\u6015
p4207
L4206L
sV\u81ea\u4e60\u8bfe
p4208
L4207L
sV\u6545\u4e8b\u96c6
p4209
L4208L
sV\u5b81\u7f3a\u52ff\u6ee5
p4210
L4209L
sV\u653e\u9a6c\u8fc7\u6765
p4211
L4210L
sV\u604b\u4eba
p4212
L4211L
sV\u8ff7\u5931
p4213
L4212L
sV\u4f1a\u63a5
p4214
L4213L
sV\u7f16\u8005\u6309
p4215
L4214L
sV\u60c5\u611f\u6545\u4e8b
p4216
L4215L
sV\u56de\u5bb6\u9014\u4e2d
p4217
L4216L
sV\u9c7c\u9ccd
p4218
L4217L
sV\u8f97\u8f6c\u96be\u7720
p4219
L4218L
sV\u8ffd\u4eba
p4220
L4219L
sV\u5e95\u9650
p4221
L4220L
sV\u817b\u5728\u4e00\u8d77
p4222
L4221L
sV\u67e5\u5c97
p4223
L4222L
sV\u4e00\u7b11\u800c\u8fc7
p4224
L4223L
sV\u725b\u8169
p4225
L4224L
sV\u6697\u604b
p4226
L4225L
sV\u7f51\u604b
p4227
L4226L
sV\u6709\u7f18\u4eba
p4228
L4227L
sV\u661f\u5ea7
p4229
L4228L
sV\u523b\u8d77
p4230
L4229L
sV\u5927\u7537\u5b50\u4e3b\u4e49
p4231
L4230L
sV\u6253\u6270\u5230
p4232
L4231L
sV\u5929\u8352\u5730\u8001
p4233
L4232L
sV\u5e78\u798f\u5feb\u4e50
p4234
L4233L
sV\u77ed\u4fe1\u5185\u5bb9
p4235
L4234L
sV\u60c5\u4eba\u773c\u91cc\u51fa\u897f\u65bd
p4236
L4235L
sV\u6253\u70b9\u6ef4
p4237
L4236L
sV\u597d\u96be
p4238
L4237L
sV\u9057\u5931\u5728
p4239
L4238L
sV\u7279\u62db
p4240
L4239L
sV\u7d27\u5f20\u611f
p4241
L4240L
sV\u51e4\u5f71\u7130
p4242
L4241L
sV\u5468\u5185
p4243
L4242L
sV\u5360\u661f\u5b66
p4244
L4243L
sV\u6c34\u76f8
p4245
L4244L
sV\u6ca1\u9a91
p4246
L4245L
sV\u5355\u8eab\u65cf
p4247
L4246L
sV\u51a5\u738b
p4248
L4247L
sV\u51ac\u81f3\u70b9
p4249
L4248L
sV\u6d4b\u8bd5\u9636\u6bb5
p4250
L4249L
sV\u9038\u95fb
p4251
L4250L
sV\u60f3\u50cf\u6210
p4252
L4251L
sV\u6709\u8ff9\u53ef\u5faa
p4253
L4252L
sV\u5c14\u514b
p4254
L4253L
sV\u5929\u76f8
p4255
L4254L
sV\u81c6\u65ad
p4256
L4255L
sV\u6797\u6069
p4257
L4256L
sV\u5e76\u4ee4
p4258
L4257L
sV\u5408\u76f8
p4259
L4258L
sV\u4e13\u9898
p4260
L4259L
sV\u65af\u6cf0\u5c14
p4261
L4260L
sV\u4efb\u7136
p4262
L4261L
sV\u94b1\u5fb7\u62c9
p4263
L4262L
sV\u4f01\u56fe\u5fc3
p4264
L4263L
sV\u76f8\u5211
p4265
L4264L
sV\u771f\u68d2
p4266
L4265L
sV\u5bab\u57ce\u53bf
p4267
L4266L
sV\u661f\u8c61\u5b66
p4268
L4267L
sV\u67d0\u6837
p4269
L4268L
sV\u56db\u80de\u80ce
p4270
L4269L
sV\u7f8e\u675c\u838e
p4271
L4270L
sV\u7b2c\u4e00\u675f
p4272
L4271L
sV\u8282\u9009\u81ea
p4273
L4272L
sV\u68b5\u9ad8
p4274
L4273L
sV\u5c06\u6709\u52a9
p4275
L4274L
sV\u5854\u7f57\u724c
p4276
L4275L
sV\u75f4\u7537\u6028\u5973
p4277
L4276L
sV\u4e0d\u8bda\u5b9e
p4278
L4277L
sV\u7740\u9646\u70b9
p4279
L4278L
sV\u76d6\u6d47\u996d
p4280
L4279L
sV\u6c89\u6f5c
p4281
L4280L
sV\u9e21\u86cb\u58f3
p4282
L4281L
sV\u5965\u4e49
p4283
L4282L
sV\u591a\u7ef4\u5ea6
p4284
L4283L
sV\u5854\u7f57
p4285
L4284L
sV\u9a7b\u7ad9
p4286
L4285L
sV\u79d1\u6280\u62a5
p4287
L4286L
sV\u901f\u9012
p4288
L4287L
sV\u7cbe\u5f69
p4289
L4288L
sV\u4eba\u5219
p4290
L4289L
sV\u5927\u667a\u82e5
p4291
L4290L
sV\u5c9a\u5c9a
p4292
L4291L
sV\u64b0\u7a3f
p4293
L4292L
sV\u82cd\u6735
p4294
L4293L
sV\u6d77\u8863
p4295
L4294L
sV\u964c\u9611
p4296
L4295L
sV\u6c99\u590f\u4e00
p4297
L4296L
sV\u6c99\u590f
p4298
L4297L
sV\u6d4b\u6d4b
p4299
L4298L
sV\u5143\u541b
p4300
L4299L
sV\u8868\u91cc\u5982\u4e00
p4301
L4300L
sV\u8da3\u5473
p4302
L4301L
sV\u4eba\u9645
p4303
L4302L
sV\u9b54\u955c
p4304
L4303L
sV\u6e38\u620f\u5427
p4305
L4304L
sV\u72ec\u5bb6
p4306
L4305L
sV\u9053\u9898
p4307
L4306L
sV\u975e\u4e13\u4e1a
p4308
L4307L
sV\u6697\u591c
p4309
L4308L
sV\u70e6\u5fc3\u4e8b
p4310
L4309L
sV\u9047\u4eba\u4e0d\u6dd1
p4311
L4310L
sV\u604b\u60c5
p4312
L4311L
sV\u6697\u6218
p4313
L4312L
sV\u624d\u884c
p4314
L4313L
sV\u5947\u5e7b
p4315
L4314L
sV\u7ed3\u5a5a\u72c2
p4316
L4315L
sV\u6625\u672b
p4317
L4316L
sV\u8ba1\u5206
p4318
L4317L
sV\u5bfb\u56de
p4319
L4318L
sV\u62f3\u811a\u76f8\u52a0
p4320
L4319L
sV\u4e2a\u9898
p4321
L4320L
sV\u8fd9\u80fd
p4322
L4321L
sV\u85aa\u8d44
p4323
L4322L
sV\u9002\u914d
p4324
L4323L
sV\u5355\u673a\u6e38\u620f
p4325
L4324L
sV\u6e38\u620f\u673a
p4326
L4325L
sV\u8857\u673a
p4327
L4326L
sV\u622a\u56fe
p4328
L4327L
sV\u9b54\u517d\u4e89\u9738
p4329
L4328L
sV\u7b2c\u4e09\u5c40
p4330
L4329L
sV\u7535\u7ade
p4331
L4330L
sV\u8d5b\u533a
p4332
L4331L
sV\u9f20\u6807\u57ab
p4333
L4332L
sV\u767e\u8111\u6c47
p4334
L4333L
sV\u53cd\u6050\u7cbe\u82f1
p4335
L4334L
sV\u804c\u4e1a\u8054\u8d5b
p4336
L4335L
sV\u5927\u5c40\u89c2
p4337
L4336L
sV\u98de\u72d0
p4338
L4337L
sV\u5206\u7ad9\u8d5b
p4339
L4338L
sV\u7cfb\u5217\u8d5b
p4340
L4339L
sV\u7ade\u901f\u8d5b
p4341
L4340L
sV\u795e\u65cf
p4342
L4341L
sV\u866b\u65cf
p4343
L4342L
sV\u674e\u6653\u5cf0
p4344
L4343L
sV\u540c\u65f6\u5728\u7ebf
p4345
L4344L
sV\u738b\u4e2d\u738b
p4346
L4345L
sV\u51fa\u8d5b
p4347
L4346L
sV\u6e38\u620f\u6027
p4348
L4347L
sV\u517d\u738b
p4349
L4348L
sV\u8bd5\u73a9
p4350
L4349L
sV\u7834\u574f\u795e
p4351
L4350L
sV\u7cbe\u51c6\u5ea6
p4352
L4351L
sV\u6f15\u5b9d\u8def
p4353
L4352L
sV\u4e0a\u6d77\u5149\u5927\u4f1a\u5c55\u4e2d\u5fc3
p4354
L4353L
sV\u6389\u7ebf
p4355
L4354L
sV\u5357\u4eac\u7ad9
p4356
L4355L
sV\u7535\u5b50\u7ade\u6280
p4357
L4356L
sV\u5fb7\u56fd\u79d1\u9686
p4358
L4357L
sV\u603b\u51b3\u8d5b
p4359
L4358L
sV\u6218\u7f62
p4360
L4359L
sV\u5c0f\u7ec4\u8d5b
p4361
L4360L
sV\u4eba\u65cf
p4362
L4361L
sV\u6280\u5609
p4363
L4362L
sV\u8d5b\u4e8b
p4364
L4363L
sV\u6b21\u4e16\u4ee3
p4365
L4364L
sV\u7f51\u763e
p4366
L4365L
sV\u5237\u5c4f
p4367
L4366L
sV\u9ed1\u5e97
p4368
L4367L
sV\u5730\u4e0b\u57ce
p4369
L4368L
sV\u6253\u91ce
p4370
L4369L
sV\u8d5b\u535a\u6570\u7801
p4371
L4370L
sV\u94b1\u6765
p4372
L4371L
sV\u9b54\u74f6
p4373
L4372L
sV\u6570\u7801\u5e7f\u573a
p4374
L4373L
sV\u4e00\u8bd5\u8eab\u624b
p4375
L4374L
sV\u6218\u7f51
p4376
L4375L
sV\u7ade\u5708
p4377
L4376L
sV\u5f00\u8d5b
p4378
L4377L
sV\u4f53\u603b
p4379
L4378L
sV\u9ec4\u7fd4
p4380
L4379L
sV\u800c\u6218
p4381
L4380L
sV\u9884\u9009\u8d5b
p4382
L4381L
sV\u914d\u56fe
p4383
L4382L
sV\u7b2c\u4e94\u8f6e
p4384
L4383L
sV\u6e38\u620f\u7c7b
p4385
L4384L
sV\u8f6c\u6295
p4386
L4385L
sV\u7b2c\u4e8c\u76d8
p4387
L4386L
sV\u8d5b\u51b5
p4388
L4387L
sV\u53d1\u884c\u5546
p4389
L4388L
sV\u6ce2\u6d41
p4390
L4389L
sV\u4e8c\u53d1
p4391
L4390L
sV\u8089\u76fe
p4392
L4391L
sV\u7b2c\u4e8c\u5c40
p4393
L4392L
sV\u7b2c\u4e00\u5c40
p4394
L4393L
sV\u5973\u730e
p4395
L4394L
sV\u66b4\u5175
p4396
L4395L
sV\u6e38\u620f\u7f51
p4397
L4396L
sV\u6cf0\u5766
p4398
L4397L
sV\u5bf9\u9635
p4399
L4398L
sV\u5b63\u519b
p4400
L4399L
sV\u79bb\u961f
p4401
L4400L
sV\u672c\u5ea7
p4402
L4401L
sV\u97e9\u670d
p4403
L4402L
sV\u6781\u54c1\u98de\u8f66
p4404
L4403L
sV\u544a\u4e0a
p4405
L4404L
sV\u5c0f\u51ef
p4406
L4405L
sV\u65e0\u8111
p4407
L4406L
sV\u53cc\u8d25
p4408
L4407L
sV\u524d\u4e2d\u671f
p4409
L4408L
sV\u7b2c\u4e09\u76d8
p4410
L4409L
sV\u5bf9\u7ebf
p4411
L4410L
sV\u4e4b\u9b42
p4412
L4411L
sV\u67aa\u5175
p4413
L4412L
sV\u4e3b\u529e\u4eba
p4414
L4413L
sV\u5f3a\u961f
p4415
L4414L
sV\u8054\u8d5b
p4416
L4415L
sV\u663e\u5361
p4417
L4416L
sV\u7d22\u6cf0
p4418
L4417L
sV\u529b\u514b
p4419
L4418L
sV\u51b3\u8d5b
p4420
L4419L
sV\u53f3\u952e
p4421
L4420L
sV\u5feb\u6377\u952e
p4422
L4421L
sV\u653b\u51fb\u901f\u5ea6
p4423
L4422L
sV\u6ee1\u8840
p4424
L4423L
sV\u6ce8\u518c\u8868
p4425
L4424L
sV\u524a\u51cf\u5230
p4426
L4425L
sV\u78e8\u8017
p4427
L4426L
sV\u706b\u67aa\u624b
p4428
L4427L
sV\u53d1\u8d34
p4429
L4428L
sV\u865a\u7075
p4430
L4429L
sV\u8865\u4e01
p4431
L4430L
sV\u62c9\u5f00\u6218\u5e55
p4432
L4431L
sV\u6b7b\u7075
p4433
L4432L
sV\u4e00\u54e5
p4434
L4433L
sV\u53c2\u8d5b
p4435
L4434L
sV\u4e9a\u519b
p4436
L4435L
sV\u79ef\u5206
p4437
L4436L
sV\u8d85\u7ea7
p4438
L4437L
sV\u5c0f\u7ec4
p4439
L4438L
sV\u52a8\u89c6
p4440
L4439L
sV\u5355\u6dd8
p4441
L4440L
sV\u795e\u6280
p4442
L4441L
sV\u9b3c\u738b
p4443
L4442L
sV\u5f03\u6743
p4444
L4443L
sV\u51a0\u519b
p4445
L4444L
sV\u5de6\u4e0b\u89d2
p4446
L4445L
sV\u8bfb\u79d2
p4447
L4446L
sV\u6bd2\u9f99
p4448
L4447L
sV\u4eba\u7687
p4449
L4448L
sV\u6216\u6210
p4450
L4449L
sV\u5361\u4e01\u8f66
p4451
L4450L
sV\u9b54\u68d2
p4452
L4451L
sV\u6e38\u620f\u5149\u76d8
p4453
L4452L
sV\u9884\u5224
p4454
L4453L
sV\u91cd\u51fb
p4455
L4454L
sV\u53c2\u8d5b\u961f
p4456
L4455L
sV\u4e19\u7ea7
p4457
L4456L
sV\u9884\u9009
p4458
L4457L
sV\u5206\u77ff
p4459
L4458L
sV\u5168\u660e\u661f
p4460
L4459L
sV\u4e0a\u8d5b
p4461
L4460L
sV\u7279\u522b\u8282\u76ee
p4462
L4461L
sV\u6700\u65b0\u6d88\u606f
p4463
L4462L
sV\u8749\u8054\u51a0\u519b
p4464
L4463L
sV\u6210\u5458\u540d\u5355
p4465
L4464L
sV\u661f\u6218
p4466
L4465L
sV\u7f51\u7edc\u7535\u53f0
p4467
L4466L
sV\u51b3\u51fa
p4468
L4467L
sV\u5bf9\u6218
p4469
L4468L
sV\u9009\u62d4\u8d5b
p4470
L4469L
sV\u56e2\u63a7
p4471
L4470L
sV\u5357\u4eac\u4e1c\u8def
p4472
L4471L
sV\u7834\u53d1
p4473
L4472L
sV\u4e2d\u56fd\u533a
p4474
L4473L
sV\u6c47\u805a\u4e00\u5802
p4475
L4474L
sV\u5bf9\u6620
p4476
L4475L
sV\u5356\u4e2a
p4477
L4476L
sV\u6d69\u65b9
p4478
L4477L
sV\u62bd\u9009
p4479
L4478L
sV\u8770\u86c7
p4480
L4479L
sV\u5355\u6dd8\u5236
p4481
L4480L
sV\u534a\u6761\u547d
p4482
L4481L
sV\u5f00\u53d1\u8005
p4483
L4482L
sV\u9b3c\u8282
p4484
L4483L
sV\u8868\u6f14\u8d5b
p4485
L4484L
sV\u706b\u661f\u4eba
p4486
L4485L
sV\u516c\u6d4b
p4487
L4486L
sV\u7535\u8111\u6e38\u620f
p4488
L4487L
sV\u5927\u5c55\u5b8f\u56fe
p4489
L4488L
sV\u77ee\u4eba
p4490
L4489L
sV\u4e70\u8d26
p4491
L4490L
sV\u4ee3\u8868\u6743
p4492
L4491L
sV\u90a6\u5f66
p4493
L4492L
sV\u663e\u5b58
p4494
L4493L
sV\u4efb\u5929\u5802
p4495
L4494L
sV\u9632\u6c89\u8ff7
p4496
L4495L
sV\u79c1\u670d
p4497
L4496L
sV\u7f8e\u56fd\u5728\u7ebf
p4498
L4497L
sV\u548c\u96c5\u864e
p4499
L4498L
sV\u5e7f\u544a\u4e1a\u52a1
p4500
L4499L
sV\u53d1\u552e\u65e5
p4501
L4500L
sV\u8de8\u5e73\u53f0
p4502
L4501L
sV\u7231\u7acb\u4fe1
p4503
L4502L
sV\u6d4b\u8bd5\u7248
p4504
L4503L
sV\u5510\u98ce
p4505
L4504L
sV\u65e9\u76d8
p4506
L4505L
sV\u94f6\u5f39
p4507
L4506L
sV\u6253\u5e7f\u544a
p4508
L4507L
sV\u8d5b\u8fea\u7f51
p4509
L4508L
sV\u52a8\u4f5c\u6e38\u620f
p4510
L4509L
sV\u638c\u673a
p4511
L4510L
sV\u6210\u763e\u8005
p4512
L4511L
sV\u66f9\u7ea2\u8f89
p4513
L4512L
sV\u6536\u4e3a
p4514
L4513L
sV\u738b\u4e4b\u6012
p4515
L4514L
sV\u5f00\u53d1\u4eba\u5458
p4516
L4515L
sV\u656c\u8bf7\u5149\u4e34
p4517
L4516L
sV\u7e41\u4f53\u7248
p4518
L4517L
sV\u666e\u901a\u5361
p4519
L4518L
sV\u7b80\u4f53\u4e2d\u6587\u7248
p4520
L4519L
sV\u8f69\u8f95\u5251
p4521
L4520L
sV\u6807\u51c6\u7248
p4522
L4521L
sV\u5192\u9669\u6e38\u620f
p4523
L4522L
sV\u901a\u79d1\u6280
p4524
L4523L
sV\u7535\u5b50\u51fa\u7248
p4525
L4524L
sV\u607a\u6492\u5927\u5e1d
p4526
L4525L
sV\u6a21\u62df\u57ce\u5e02
p4527
L4526L
sV\u53d1\u552e\u65e5\u671f
p4528
L4527L
sV\u514b\u5170\u897f
p4529
L4528L
sV\u80b2\u78a7
p4530
L4529L
sV\u5373\u65f6\u6218\u7565
p4531
L4530L
sV\u8d34\u56fe
p4532
L4531L
sV\u60c5\u4ec7
p4533
L4532L
sV\u751f\u6210\u5668
p4534
L4533L
sV\u7eed\u4f5c
p4535
L4534L
sV\u4eff\u771f\u5ea6
p4536
L4535L
sV\u9a6c\u91cc\u5965
p4537
L4536L
sV\u7ade\u901f
p4538
L4537L
sV\u79bb\u7ebf
p4539
L4538L
sV\u8be5\u4f5c
p4540
L4539L
sV\u9e70\u51fb\u957f\u7a7a
p4541
L4540L
sV\u6b63\u5f0f\u7248
p4542
L4541L
sV\u8bd5\u73a9\u7248
p4543
L4542L
sV\u672c\u4f5c
p4544
L4543L
sV\u73a9\u5bb6
p4545
L4544L
sV\u8d5b\u8f66
p4546
L4545L
sV\u82f1\u56fd\u516c\u53f8
p4547
L4546L
sV\u8857\u9738
p4548
L4547L
sV\u8d44\u6599\u7247
p4549
L4548L
sV\u6218\u9524
p4550
L4549L
sV\u5192\u9669\u738b
p4551
L4550L
sV\u65b0\u4f5c
p4552
L4551L
sV\u7e41\u4f53\u4e2d\u6587
p4553
L4552L
sV\u6f5c\u884c\u8005
p4554
L4553L
sV\u65b9\u7a0b\u5f0f\u8d5b\u8f66
p4555
L4554L
sV\u6e38\u620f\u8f6f\u4ef6
p4556
L4555L
sV\u677e\u5c97
p4557
L4556L
sV\u52ab\u8f66
p4558
L4557L
sV\u649e\u98de
p4559
L4558L
sV\u8d85\u7ea7\u8ba1\u7b97\u673a
p4560
L4559L
sV\u5bf9\u8bdd\u4f1a
p4561
L4560L
sV\u9996\u6bb5
p4562
L4561L
sV\u73af\u6e38
p4563
L4562L
sV\u9694\u79bb\u533a
p4564
L4563L
sV\u8f66\u624b
p4565
L4564L
sV\u9738\u738b\u9f99
p4566
L4565L
sV\u559c\u7ed3\u8fde\u7406
p4567
L4566L
sV\u8ff7\u822a
p4568
L4567L
sV\u5df2\u9ad8\u8fbe
p4569
L4568L
sV\u751f\u5316\u5371\u673a
p4570
L4569L
sV\u5957\u724c\u8f66
p4571
L4570L
sV\u6253\u4eba\u8005
p4572
L4571L
sV\u52b3\u52a8\u5c40
p4573
L4572L
sV\u67d0\u7528
p4574
L4573L
sV\u7c73\u957f
p4575
L4574L
sV\u4e8e\u6770
p4576
L4575L
sV\u6b20\u503a\u4eba
p4577
L4576L
sV\u9646\u67d0
p4578
L4577L
sV\u516c\u8bc1\u8d39
p4579
L4578L
sV\u629a\u6170\u91d1
p4580
L4579L
sV\u5367\u8f68\u81ea\u6740
p4581
L4580L
sV\u4f5c\u6848\u52a8\u673a
p4582
L4581L
sV\u519c\u5408
p4583
L4582L
sV\u70b9\u706b\u88c5\u7f6e
p4584
L4583L
sV\u5510\u67d0
p4585
L4584L
sV\u865a\u5f00
p4586
L4585L
sV\u91d1\u9ed4
p4587
L4586L
sV\u51f6\u6848
p4588
L4587L
sV\u4e8b\u4ef6\u771f\u76f8
p4589
L4588L
sV\u4e07\u5bff\u8def
p4590
L4589L
sV\u8bc8\u9a97\u6848
p4591
L4590L
sV\u8d5a\u56de
p4592
L4591L
sV\u96f6\u65f6\u8bb8
p4593
L4592L
sV\u7701\u7acb\u533b\u9662
p4594
L4593L
sV\u540e\u7ecf
p4595
L4594L
sV\u5ba0\u7269\u72d7
p4596
L4595L
sV\u6768\u6d66\u533a
p4597
L4596L
sV\u665a\u95f4\u65b0\u95fb
p4598
L4597L
sV\u6e56\u5357\u536b\u89c6
p4599
L4598L
sV\u5bcc\u59d0
p4600
L4599L
sV\u65b0\u95fb\u9891\u9053
p4601
L4600L
sV\u671d\u95fb
p4602
L4601L
sV\u4e0d\u5e78\u8eab\u4ea1
p4603
L4602L
sV\u6cbb\u5b89\u62d8\u7559
p4604
L4603L
sV\u76d7\u7a83\u6848
p4605
L4604L
sV\u516c\u5e8f\u826f
p4606
L4605L
sV\u8fbe\u6210\u8c05\u89e3
p4607
L4606L
sV\u6c49\u666e\u90e1
p4608
L4607L
sV\u8868\u59d0\u59b9
p4609
L4608L
sV\u5973\u5395\u6240
p4610
L4609L
sV\u533b\u52a1\u5ba4
p4611
L4610L
sV\u83b7\u8d54
p4612
L4611L
sV\u6551\u547d\u94b1
p4613
L4612L
sV\u80af\u5c3c
p4614
L4613L
sV\u8d76\u81f3
p4615
L4614L
sV\u4fdd\u6d01\u5458
p4616
L4615L
sV\u79d1\u5cf0
p4617
L4616L
sV\u547c\u6551\u58f0
p4618
L4617L
sV\u57c3\u5fb7\u8499\u987f
p4619
L4618L
sV\u7d27\u6025\u505c\u8f66
p4620
L4619L
sV\u4e58\u8b66
p4621
L4620L
sV\u9526\u6c5f\u533a
p4622
L4621L
sV\u9662\u575d
p4623
L4622L
sV\u6570\u5200
p4624
L4623L
sV\u88ab\u544a\u5e2d\u4e0a
p4625
L4624L
sV\u5356\u6deb\u5973
p4626
L4625L
sV\u649e\u4e86\u4eba
p4627
L4626L
sV\u5143\u5916
p4628
L4627L
sV\u8521\u5148\u751f
p4629
L4628L
sV\u4e24\u4e09\u4e07\u5143
p4630
L4629L
sV\u6447\u63a7
p4631
L4630L
sV\u8c03\u5305
p4632
L4631L
sV\u9ec4\u743c
p4633
L4632L
sV\u672a\u89c1\u5f02\u5e38
p4634
L4633L
sV\u8001\u5927\u5988
p4635
L4634L
sV\u4fef\u5367\u6491
p4636
L4635L
sV\u593a\u91d1
p4637
L4636L
sV\u731c\u731c
p4638
L4637L
sV\u8d5b\u573a
p4639
L4638L
sV\u79c1\u5bb6
p4640
L4639L
sV\u6c14\u624b\u67aa
p4641
L4640L
sV\u74ef\u6d77
p4642
L4641L
sV\u89e3\u56ca
p4643
L4642L
sV\u8c2d\u5bb6
p4644
L4643L
sV\u5c0f\u5b66\u6587\u5316
p4645
L4644L
sV\u6c5f\u5cb8\u533a
p4646
L4645L
sV\u649e\u574f
p4647
L4646L
sV\u56e0\u6709
p4648
L4647L
sV\u63d2\u5361
p4649
L4648L
sV\u6570\u4ebf\u7f8e\u5143
p4650
L4649L
sV\u59da\u5148\u751f
p4651
L4650L
sV\u9ad8\u5065
p4652
L4651L
sV\u624b\u63d0\u7535\u8111
p4653
L4652L
sV\u6b63\u8857
p4654
L4653L
sV\u8ba4\u5c38
p4655
L4654L
sV\u6e9c\u51b0\u573a
p4656
L4655L
sV\u7ecf\u4fa6\u5927\u961f
p4657
L4656L
sV\u731b\u54ac
p4658
L4657L
sV\u8ffd\u6b3e
p4659
L4658L
sV\u62d2\u4ed8
p4660
L4659L
sV\u8bc9\u79f0
p4661
L4660L
sV\u6293\u5c0f\u5077
p4662
L4661L
sV\u780c\u7816
p4663
L4662L
sV\u798f\u5a03
p4664
L4663L
sV\u533a\u6cd5\u9662
p4665
L4664L
sV\u5065\u8eab\u5668
p4666
L4665L
sV\u5218\u840d
p4667
L4666L
sV\u5973\u7f51\u53cb
p4668
L4667L
sV\u649e\u6b7b\u4eba
p4669
L4668L
sV\u66fe\u5230
p4670
L4669L
sV\u5145\u503c\u5361
p4671
L4670L
sV\u5927\u949e
p4672
L4671L
sV\u8e72\u5750\u5728
p4673
L4672L
sV\u963f\u73b2
p4674
L4673L
sV\u6e56\u5357\u8def
p4675
L4674L
sV\u60ca\u4eba\u4e4b\u4e3e
p4676
L4675L
sV\u6e56\u5357\u5e08\u8303\u5927\u5b66
p4677
L4676L
sV\u88ab\u8f66\u649e
p4678
L4677L
sV\u50ac\u8ba8
p4679
L4678L
sV\u91d1\u5c5e\u7269
p4680
L4679L
sV\u5b58\u6839
p4681
L4680L
sV\u6ee1\u8f66
p4682
L4681L
sV\u6d66\u53e3\u533a
p4683
L4682L
sV\u7535\u5b50\u8b66\u5bdf
p4684
L4683L
sV\u738b\u4e3d\u5a1c
p4685
L4684L
sV\u7cbe\u795e\u635f\u5931
p4686
L4685L
sV\u9274\u5b9a\u4e2d\u5fc3
p4687
L4686L
sV\u5362\u5148\u751f
p4688
L4687L
sV\u9500\u6389
p4689
L4688L
sV\u4eba\u683c\u6743
p4690
L4689L
sV\u6848\u53d1\u5730\u70b9
p4691
L4690L
sV\u5218\u946b
p4692
L4691L
sV\u7535\u8bdd\u5f55\u97f3
p4693
L4692L
sV\u5f20\u53cb
p4694
L4693L
sV\u6293\u8d3c
p4695
L4694L
sV\u4ed6\u9879\u6743\u8bc1
p4696
L4695L
sV\u5e97\u65b9
p4697
L4696L
sV\u4eba\u4f53\u6a21\u578b
p4698
L4697L
sV\u987a\u5fb7\u533a
p4699
L4698L
sV\u6027\u72af\u7f6a
p4700
L4699L
sV\u4e24\u4e09\u5343\u5143
p4701
L4700L
sV\u5317\u6781\u70b9
p4702
L4701L
sV\u8fc7\u4e07
p4703
L4702L
sV\u8343\u6e7e
p4704
L4703L
sV\u5609\u5b9a\u533a
p4705
L4704L
sV\u4f9b\u79f0
p4706
L4705L
sV\u590d\u8bca
p4707
L4706L
sV\u9648\u7fd4
p4708
L4707L
sV\u6d88\u78c1
p4709
L4708L
sV\u65b0\u751f\u62a5
p4710
L4709L
sV\u5236\u8863\u5382
p4711
L4710L
sV\u6b32\u8df3\u697c
p4712
L4711L
sV\u719f\u624b
p4713
L4712L
sV\u8111\u5916\u79d1
p4714
L4713L
sV\u6258\u5fb7
p4715
L4714L
sV\u8c2d\u67d0
p4716
L4715L
sV\u5bcc\u90a6
p4717
L4716L
sV\u6027\u4fb5\u72af
p4718
L4717L
sV\u7535\u8baf\u62a5
p4719
L4718L
sV\u70ed\u5496\u5561
p4720
L4719L
sV\u6570\u767e\u5f20
p4721
L4720L
sV\u7ef4\u9f99\u52a0
p4722
L4721L
sV\u63a8\u9500\u4ea7\u54c1
p4723
L4722L
sV\u6625\u7199\u8def
p4724
L4723L
sV\u5f20\u5fe0\u971e
p4725
L4724L
sV\u53e4\u73a9\u57ce
p4726
L4725L
sV\u70b9\u949e
p4727
L4726L
sV\u7b2c\u5341\u516b\u6761
p4728
L4727L
sV\u7b2c\u4e94\u6279
p4729
L4728L
sV\u5b66\u672f\u671f\u520a
p4730
L4729L
sV\u533b\u5b66\u671f\u520a
p4731
L4730L
sV\u96ea\u5730\u8f66
p4732
L4731L
sV\u9020\u5047\u8005
p4733
L4732L
sV\u65e5\u606f
p4734
L4733L
sV\u4e2a\u6708\u671f
p4735
L4734L
sV\u592a\u7a7a\u98de\u884c
p4736
L4735L
sV\u5218\u598d
p4737
L4736L
sV\u9057\u4f20\u75be\u75c5
p4738
L4737L
sV\u53cd\u7269\u8d28
p4739
L4738L
sV\u5b87\u822a\u5c40
p4740
L4739L
sV\u5904\u5973\u822a
p4741
L4740L
sV\u827e\u59c6\u65af
p4742
L4741L
sV\u6982\u5ff5\u56fe
p4743
L4742L
sV\u6210\u50cf\u4eea
p4744
L4743L
sV\u4ece\u672c
p4745
L4744L
sV\u7f8e\u5b87\u822a\u5c40
p4746
L4745L
sV\u534e\u6c0f\u5ea6
p4747
L4746L
sV\u5b5d\u6587
p4748
L4747L
sV\u6b27\u6d32\u822a\u5929\u5c40
p4749
L4748L
sV\u7740\u9646\u5668
p4750
L4749L
sV\u767b\u9646\u5668
p4751
L4750L
sV\u79d1\u5b66\u7f51
p4752
L4751L
sV\u6728\u536b\u4e8c
p4753
L4752L
sV\u51b0\u7c92
p4754
L4753L
sV\u6f2b\u6e38\u8005
p4755
L4754L
sV\u5361\u62c9\u65af
p4756
L4755L
sV\u9668\u5751
p4757
L4756L
sV\u6208\u8fbe\u5fb7
p4758
L4757L
sV\u636e\u4fe1
p4759
L4758L
sV\u957f\u6709
p4760
L4759L
sV\u4ebf\u5c81
p4761
L4760L
sV\u5343\u591a\u7c73
p4762
L4761L
sV\u8c61\u9f3b\u866b
p4763
L4762L
sV\u4e07\u5230
p4764
L4763L
sV\u6267\u7b14\u4eba
p4765
L4764L
sV\u53f2\u5bc6\u677e
p4766
L4765L
sV\u89e3\u6790\u5ea6
p4767
L4766L
sV\u4ebf\u500d
p4768
L4767L
sV\u6708\u7403\u8f66
p4769
L4768L
sV\u98ce\u5316\u5c42
p4770
L4769L
sV\u56db\u8db3
p4771
L4770L
sV\u4ebf\u9897
p4772
L4771L
sV\u590f\u5a01\u5937\u5927\u5b66
p4773
L4772L
sV\u5730\u5916
p4774
L4773L
sV\u65f6\u95f4\u673a\u5668
p4775
L4774L
sV\u5b9e\u9a8c\u8231
p4776
L4775L
sV\u6570\u5343\u500d
p4777
L4776L
sV\u666e\u9510\u65af
p4778
L4777L
sV\u73af\u9762
p4779
L4778L
sV\u6a21\u62df\u51fa
p4780
L4779L
sV\u5168\u7403\u536b\u661f
p4781
L4780L
sV\u970d\u91d1
p4782
L4781L
sV\u5341\u4ebf\u5206
p4783
L4782L
sV\u5411\u592a\u7a7a
p4784
L4783L
sV\u5b9e\u9a8c\u9f20
p4785
L4784L
sV\u6b27\u6d32\u6838\u5b50\u7814\u7a76\u4e2d\u5fc3
p4786
L4785L
sV\u4e07\u65af
p4787
L4786L
sV\u5206\u5149\u8ba1
p4788
L4787L
sV\u4fc4\u7f57\u65af\u79d1\u5b66\u9662
p4789
L4788L
sV\u9b4f\u51ac
p4790
L4789L
sV\u590f\u5a01\u5937\u5c9b
p4791
L4790L
sV\u7279\u5229
p4792
L4791L
sV\u6d4b\u8bd5\u8005
p4793
L4792L
sV\u9996\u9897
p4794
L4793L
sV\u592a\u7a7a\u65f6\u4ee3
p4795
L4794L
sV\u5e0c\u59c6
p4796
L4795L
sV\u5965\u5229\u5f17
p4797
L4796L
sV\u822a\u5929\u4e2d\u5fc3
p4798
L4797L
sV\u4e0a\u65f6
p4799
L4798L
sV\u6570\u5341\u4ebf\u5e74
p4800
L4799L
sV\u63a2\u6d4b\u8f66
p4801
L4800L
sV\u6697\u7269\u8d28
p4802
L4801L
sV\u6444\u5f71\u672f
p4803
L4802L
sV\u6570\u767e\u4e07\u5e74
p4804
L4803L
sV\u5c3c\u683c
p4805
L4804L
sV\u592a\u7a7a\u8231
p4806
L4805L
sV\u663e\u5fae\u7167\u7247
p4807
L4806L
sV\u51e0\u82f1\u91cc
p4808
L4807L
sV\u5df4\u4f2f
p4809
L4808L
sV\u5361\u897f\u5c3c
p4810
L4809L
sV\u83f2\u4e9a
p4811
L4810L
sV\u51b0\u6cb3\u65f6\u4ee3
p4812
L4811L
sV\u6570\u5343\u53ea
p4813
L4812L
sV\u514b\u9686\u6280\u672f
p4814
L4813L
sV\u5c14\u83f2
p4815
L4814L
sV\u6c34\u51b0
p4816
L4815L
sV\u795e\u79d8\u7269\u8d28
p4817
L4816L
sV\u535a\u95fb
p4818
L4817L
sV\u52d2\u5e03
p4819
L4818L
sV\u56fd\u9645\u5546\u7528\u673a\u5668\u516c\u53f8
p4820
L4819L
sV\u91cc\u5947\u8499
p4821
L4820L
sV\u5206\u5149\u4eea
p4822
L4821L
sV\u5947\u5965
p4823
L4822L
sV\u7f8e\u56fd\u5b87\u822a\u5c40
p4824
L4823L
sV\u56fd\u5bb6\u6d77\u6d0b\u5c40
p4825
L4824L
sV\u957f\u57ce\u7ad9
p4826
L4825L
sV\u6606\u866b\u5b66\u5bb6
p4827
L4826L
sV\u89c2\u6d4b\u53f0
p4828
L4827L
sV\u57c3\u8fea
p4829
L4828L
sV\u706b\u536b\u4e00
p4830
L4829L
sV\u592a\u7a7a\u670d
p4831
L4830L
sV\u53f2\u8482\u6587
p4832
L4831L
sV\u94b1\u94ee
p4833
L4832L
sV\u65b0\u95fb\u516c\u62a5
p4834
L4833L
sV\u79d1\u8003\u8239
p4835
L4834L
sV\u9a6c\u683c\u52aa\u65af
p4836
L4835L
sV\u5317\u6781\u51b0
p4837
L4836L
sV\u4eba\u7c7b\u57fa\u56e0
p4838
L4837L
sV\u6050\u6016\u75c7
p4839
L4838L
sV\u56fe\u68ee
p4840
L4839L
sV\u57f9\u517b\u76bf
p4841
L4840L
sV\u65af\u76ae\u7b56
p4842
L4841L
sV\u4f0a\u6069
p4843
L4842L
sV\u5192\u724c\u8d27
p4844
L4843L
sV\u5fb7\u66fc
p4845
L4844L
sV\u51b0\u6cb3\u671f
p4846
L4845L
sV\u5c0f\u888b\u9f20
p4847
L4846L
sV\u5168\u666f\u56fe
p4848
L4847L
sV\u672c\u5792
p4849
L4848L
sV\u79d1\u5b66\u6742\u5fd7
p4850
L4849L
sV\u79cb\u51cc
p4851
L4850L
sV\u6050\u9f99\u86cb
p4852
L4851L
sV\u51b0\u6cb3\u65f6\u671f
p4853
L4852L
sV\u73af\u7403\u65c5\u884c
p4854
L4853L
sV\u78c1\u8c31\u4eea
p4855
L4854L
sV\u674e\u5b66\u6885
p4856
L4855L
sV\u6000\u7591\u8bba\u8005
p4857
L4856L
sV\u5927\u767d\u9ca8
p4858
L4857L
sV\u79d1\u8003\u961f
p4859
L4858L
sV\u53cc\u5b50\u661f
p4860
L4859L
sV\u80af\u5c3c\u65af
p4861
L4860L
sV\u4e16\u754c\u9057\u4ea7
p4862
L4861L
sV\u795e\u7ecf\u5b66\u5bb6
p4863
L4862L
sV\u95f0\u79d2
p4864
L4863L
sV\u5317\u4eac\u5929\u6587\u9986
p4865
L4864L
sV\u592a\u9633\u98ce\u66b4
p4866
L4865L
sV\u7ec4\u5bf9
p4867
L4866L
sV\u7acb\u4f53\u56fe
p4868
L4867L
sV\u963f\u4e3d\u4e9a\u5a1c
p4869
L4868L
sV\u51b0\u67b6
p4870
L4869L
sV\u5df4\u5df4\u591a\u65af\u5c9b
p4871
L4870L
sV\u6781\u9650\u8fd0\u52a8
p4872
L4871L
sV\u6279\u8bc4\u8005
p4873
L4872L
sV\u5218\u94a2
p4874
L4873L
sV\u5341\u5f20
p4875
L4874L
sV\u96f7\u96e8\u4e91
p4876
L4875L
sV\u73cd\u59ae\u7279
p4877
L4876L
sV\u9662\u520a
p4878
L4877L
sV\u624b\u673a\u4fe1\u53f7
p4879
L4878L
sV\u571f\u536b\u516d
p4880
L4879L
sV\u6570\u4e07\u5e74
p4881
L4880L
sV\u75f4\u5446\u75c7
p4882
L4881L
sV\u6728\u5b50
p4883
L4882L
sV\u767e\u4e07\u82f1\u9551
p4884
L4883L
sV\u514b\u91cc\u65af\u591a
p4885
L4884L
sV\u901a\u8baf\u536b\u661f
p4886
L4885L
sV\u53d1\u5c04\u536b\u661f
p4887
L4886L
sV\u7c7b\u5730\u884c\u661f
p4888
L4887L
sV\u7231\u8fbe\u8377
p4889
L4888L
sV\u91cc\u67e5\u5fb7
p4890
L4889L
sV\u65b0\u7597\u6cd5
p4891
L4890L
sV\u4e94\u4eba
p4892
L4891L
sV\u6bd4\u8fd1
p4893
L4892L
sV\u6b64\u80a1
p4894
L4893L
sV\u7f8e\u80a1
p4895
L4894L
sV\u65e5\u7f8e\u80a1
p4896
L4895L
sV\u4e13\u680f\u4f5c\u5bb6
p4897
L4896L
sV\u66fe\u6587\u4fca
p4898
L4897L
sV\u963b\u529b\u70b9
p4899
L4898L
sV\u770b\u7f8e\u80a1
p4900
L4899L
sV\u8d70\u5f0f
p4901
L4900L
sV\u8d70\u5f31
p4902
L4901L
sV\u76fc\u590d
p4903
L4902L
sV\u5927\u51cf
p4904
L4903L
sV\u9616\u5bb6\u5e78\u798f
p4905
L4904L
sV\u7279\u6025
p4906
L4905L
sV\u4e07\u5206\u611f\u6fc0
p4907
L4906L
sV\u5f31\u4e8e
p4908
L4907L
sV\u5174\u4e9a
p4909
L4908L
sV\u8bf7\u8c05\u89e3
p4910
L4909L
sV\u8ba4\u8d54
p4911
L4910L
sV\u9022\u4f4e\u4e70\u8fdb
p4912
L4911L
sV\u5ba2\u6237\u8d44\u6599
p4913
L4912L
sV\u6458\u8bd1
p4914
L4913L
sV\u97e6\u65af\u4f2f\u5229
p4915
L4914L
sV\u660e\u971e
p4916
L4915L
sV\u6709\u4ec0
p4917
L4916L
sV\u7c7b\u80a1
p4918
L4917L
sV\u9ad8\u54e5
p4919
L4918L
sV\u4f4e\u5438
p4920
L4919L
sV\u80fd\u6e90\u4e1a
p4921
L4920L
sV\u5218\u7f8e
p4922
L4921L
sV\u60e0\u8a89
p4923
L4922L
sV\u6807\u552e
p4924
L4923L
sV\u6536\u4e8e
p4925
L4924L
sV\u7f8e\u56fd\u52b3\u5de5\u90e8
p4926
L4925L
sV\u975e\u519c
p4927
L4926L
sV\u91d1\u6708
p4928
L4927L
sV\u51e0\u65e0
p4929
L4928L
sV\u6b27\u503a
p4930
L4929L
sV\u5218\u5c0f\u5e86
p4931
L4930L
sV\u4e0a\u6d77\u8054\u548c\u6295\u8d44\u6709\u9650\u516c\u53f8
p4932
L4931L
sV\u7981\u98de
p4933
L4932L
sV\u57c3\u4e9a
p4934
L4933L
sV\u817e\u4e2d
p4935
L4934L
sV\u65f6\u4ec5
p4936
L4935L
sV\u96ea\u5a77
p4937
L4936L
sV\u768e\u5b87
p4938
L4937L
sV\u4ea4\u94f6
p4939
L4938L
sV\u6b3e\u6570
p4940
L4939L
sV\u706b\u5c71\u7070
p4941
L4940L
sV\u51b0\u5c9b
p4942
L4941L
sV\u70ed\u94b1
p4943
L4942L
sV\u5143\u5e73
p4944
L4943L
sV\u5de6\u5c0f\u857e
p4945
L4944L
sV\u6d01\u7433
p4946
L4945L
sV\u5e7f\u544a\u8d39\u7528
p4947
L4946L
sV\u534e\u519c
p4948
L4947L
sV\u7531\u8be5
p4949
L4948L
sV\u8ba1\u6536
p4950
L4949L
sV\u8868\u5185
p4951
L4950L
sV\u6768\u658c
p4952
L4951L
sV\u53cc\u964d
p4953
L4952L
sV\u6807\u666e
p4954
L4953L
sV\u5546\u8d37
p4955
L4954L
sV\u62c9\u514b\u5c14
p4956
L4955L
sV\u8bfa\u6c83\u7279\u5c3c
p4957
L4956L
sV\u8ba4\u8d37
p4958
L4957L
sV\u9996\u4ed8\u6b3e
p4959
L4958L
sV\u6570\u4e3a
p4960
L4959L
sV\u516b\u56fd\u96c6\u56e2
p4961
L4960L
sV\u4e89\u4ea7
p4962
L4961L
sV\u5de5\u94f6
p4963
L4962L
sV\u7ecf\u5408\u7ec4\u7ec7
p4964
L4963L
sV\u8d2a\u6c61\u6848
p4965
L4964L
sV\u8bae\u606f
p4966
L4965L
sV\u65e5\u5f53\u5468
p4967
L4966L
sV\u8d35\u5bbe\u5385
p4968
L4967L
sV\u8d54\u672c\u8d5a\u5406\u559d
p4969
L4968L
sV\u63d0\u62e8
p4970
L4969L
sV\u6536\u7a84
p4971
L4970L
sV\u7f8e\u56fd\u56fd\u4f1a\u4f17\u8bae\u9662
p4972
L4971L
sV\u82f1\u56fd\u9996\u76f8
p4973
L4972L
sV\u5de8\u4e8f
p4974
L4973L
sV\u5bcc\u901a
p4975
L4974L
sV\u5c1a\u519b
p4976
L4975L
sV\u7f8e\u6b27
p4977
L4976L
sV\u82f1\u822a
p4978
L4977L
sV\u82f1\u56fd\u822a\u7a7a\u516c\u53f8
p4979
L4978L
sV\u7f8e\u6797\u516c\u53f8
p4980
L4979L
sV\u65b0\u534e\u7f51
p4981
L4980L
sV\u7eb3\u65af\u8fbe\u514b
p4982
L4981L
sV\u5218\u6653\u71d5
p4983
L4982L
sV\u767d\u5ddd
p4984
L4983L
sV\u989c\u831c
p4985
L4984L
sV\u623f\u5229\u7f8e
p4986
L4985L
sV\u53d1\u5361\u884c
p4987
L4986L
sV\u65e5\u8054
p4988
L4987L
sV\u51cf\u8bb0
p4989
L4988L
sV\u5bc4\u8fc7\u6765
p4990
L4989L
sV\u9010\u5b63
p4991
L4990L
sV\u8ba8\u8bba\u7a3f
p4992
L4991L
sV\u7531\u66e6
p4993
L4992L
sV\u8d8b\u7d27
p4994
L4993L
sV\u5510\u771f\u9f99
p4995
L4994L
sV\u6389\u671f
p4996
L4995L
sV\u4e0a\u89e6
p4997
L4996L
sV\u524d\u503c
p4998
L4997L
sV\u503c\u4e3a
p4999
L4998L
sV\u7269\u4ef7\u6307\u6570
p5000
L4999L
sV\u9884\u4f30
p5001
L5000L
sV\u8fdb\u53e3
p5002
L5001L
sV\u5e93\u5b58
p5003
L5002L
sV\u5546\u4e1a
p5004
L5003L
sV\u9500\u552e
p5005
L5004L
sV\u9886\u5148
p5006
L5005L
sV\u8d39\u57ce
p5007
L5006L
sV\u8054\u50a8
p5008
L5007L
sV\u7ec8\u503c
p5009
L5008L
sV\u5bc6\u6b47\u6839
p5010
L5009L
sV\u4e30\u4e1a
p5011
L5010L
sV\u6708\u671f
p5012
L5011L
sV\u8d70\u8f6f
p5013
L5012L
sV\u62c6\u653e
p5014
L5013L
sV\u4e2a\u70b9
p5015
L5014L
sV\u5f53\u524d\u72b6\u51b5
p5016
L5015L
sV\u5468\u521d
p5017
L5016L
sV\u5931\u4e1a
p5018
L5017L
sV\u964d\u606f
p5019
L5018L
sV\u652f\u85aa
p5020
L5019L
sV\u7ee7\u4e0a
p5021
L5020L
sV\u6301\u7a33
p5022
L5021L
sV\u524d\u79f0
p5023
L5022L
sV\u76d8\u524d
p5024
L5023L
sV\u56de\u5f39
p5025
L5024L
sV\u4e0b\u89e6
p5026
L5025L
sV\u6279\u53d1
p5027
L5026L
sV\u5e73\u5747
p5028
L5027L
sV\u91d1\u6069
p5029
L5028L
sV\u514b\u585e\u5c14
p5030
L5029L
sV\u5df2\u964d
p5031
L5030L
sV\u6210\u5c4b
p5032
L5031L
sV\u8d8b\u7a33
p5033
L5032L
sV\u6c7d\u8f66\u8d37\u6b3e
p5034
L5033L
sV\u81f3\u63a5
p5035
L5034L
sV\u7ea2\u76ae\u4e66
p5036
L5035L
sV\u521b\u8bb0\u5f55
p5037
L5036L
sV\u4ebf\u7f8e\u5143
p5038
L5037L
sV\u5931\u4e1a\u4eba\u6570
p5039
L5038L
sV\u5468\u85aa
p5040
L5039L
sV\u52b3\u5de5\u90e8
p5041
L5040L
sV\u4e07\u5e62
p5042
L5041L
sV\u5355\u6237
p5043
L5042L
sV\u4e0b\u8dcc
p5044
L5043L
sV\u5854\u592b
p5045
L5044L
sV\u8dcc\u5e45
p5046
L5045L
sV\u5f00\u76d8
p5047
L5046L
sV\u623f\u4ef7
p5048
L5047L
sV\u4fe1\u5fc3
p5049
L5048L
sV\u6d88\u8d39\u8005
p5050
L5049L
sV\u54a8\u5546
p5051
L5050L
sV\u5b63\u7387
p5052
L5051L
sV\u7b2c\u4e00\u5b63\u5ea6
p5053
L5052L
sV\u7f8e\u56fd
p5054
L5053L
sV\u623f\u5c4b
p5055
L5054L
sV\u5931\u4e1a\u5de5\u4eba
p5056
L5055L
sV\u672a\u51b3
p5057
L5056L
sV\u6307\u6570
p5058
L5057L
sV\u6da8\u81f3
p5059
L5058L
sV\u8010\u7528\u54c1
p5060
L5059L
sV\u5236\u9020\u4e1a
p5061
L5060L
sV\u4e07\u6876
p5062
L5061L
sV\u539f\u6cb9
p5063
L5062L
sV\u4e0a\u5468
p5064
L5063L
sV\u84b8\u998f
p5065
L5064L
sV\u516d\u79cd
p5066
L5065L
sV\u5b89\u683c\u62c9
p5067
L5066L
sV\u7ecf\u6d4e\u6ed1\u5761
p5068
L5067L
sV\u5c31\u4e1a\u4eba\u6570
p5069
L5068L
sV\u96f6\u552e
p5070
L5069L
sV\u65b0\u5c4b
p5071
L5070L
sV\u751f\u4ea7\u8005
p5072
L5071L
sV\u652f\u51fa
p5073
L5072L
sV\u6c7d\u6cb9
p5074
L5073L
sV\u5e74\u540c
p5075
L5074L
sV\u8d27\u5e01\u6c47\u7387
p5076
L5075L
sV\u514b\u52b3\u5fb7
p5077
L5076L
sV\u521d\u503c
p5078
L5077L
sV\u5e74\u5316
p5079
L5078L
sV\u4ecd\u4e3a
p5080
L5079L
sV\u5df2\u6709
p5081
L5080L
sV\u7ff0\u6d77
p5082
L5081L
sV\u738b\u5146\u661f
p5083
L5082L
sV\u9ec4\u82b1\u68a8
p5084
L5083L
sV\u90ae\u5546
p5085
L5084L
sV\u7eaa\u5ff5\u5e01
p5086
L5085L
sV\u9f99\u7968
p5087
L5086L
sV\u90ed\u7530\u52c7
p5088
L5087L
sV\u6768\u518d\u5e73
p5089
L5088L
sV\u96f6\u9996\u4ed8
p5090
L5089L
sV\u8d37\u540e
p5091
L5090L
sV\u9762\u7b7e
p5092
L5091L
sV\u62b5\u62bc\u91d1
p5093
L5092L
sV\u4e54\u7ee7\u7ea2
p5094
L5093L
sV\u52a0\u6cb9\u5361
p5095
L5094L
sV\u53ef\u529e
p5096
L5095L
sV\u77f3\u8d1d\u8d1d
p5097
L5096L
sV\u7f51\u94f6
p5098
L5097L
sV\u5916\u5e01\u5b58\u6b3e
p5099
L5098L
sV\u884c\u5bf9
p5100
L5099L
sV\u6076\u610f\u900f\u652f
p5101
L5100L
sV\u529e\u5361\u65f6
p5102
L5101L
sV\u65f6\u5c11
p5103
L5102L
sV\u5237\u5361\u673a
p5104
L5103L
sV\u78c1\u6761
p5105
L5104L
sV\u6539\u82b3
p5106
L5105L
sV\u529e\u5361\u4eba
p5107
L5106L
sV\u9000\u5355
p5108
L5107L
sV\u4f2a\u5361
p5109
L5108L
sV\u6e05\u6536
p5110
L5109L
sV\u6263\u53d6
p5111
L5110L
sV\u9ec4\u60e0\u654f
p5112
L5111L
sV\u8bbf\u4eb2
p5113
L5112L
sV\u4ebf\u5f20
p5114
L5113L
sV\u7528\u5361
p5115
L5114L
sV\u78c1\u6761\u5361
p5116
L5115L
sV\u76d7\u5237
p5117
L5116L
sV\u5b5f\u51e1\u971e
p5118
L5117L
sV\u7406\u8d22\u91d1
p5119
L5118L
sV\u5546\u4e1a\u94f6\u884c\u603b\u884c
p5120
L5119L
sV\u9010\u7b14
p5121
L5120L
sV\u8c0b\u53d8
p5122
L5121L
sV\u5361\u91cf
p5123
L5122L
sV\u94f6\u76d1
p5124
L5123L
sV\u6ede\u540e\u6548\u5e94
p5125
L5124L
sV\u5362\u5148\u5175
p5126
L5125L
sV\u94f6\u884c\u8d39\u7528
p5127
L5126L
sV\u559c\u5237\u5237
p5128
L5127L
sV\u7533\u8bf7\u5355
p5129
L5128L
sV\u5efa\u884c\u5c31
p5130
L5129L
sV\u674e\u4fdd\u534e
p5131
L5130L
sV\u6536\u5e74\u8d39
p5132
L5131L
sV\u62e8\u5907
p5133
L5132L
sV\u94f6\u4fe1
p5134
L5133L
sV\u90b9\u9753
p5135
L5134L
sV\u4efb\u6653
p5136
L5135L
sV\u738b\u82b3\u8273
p5137
L5136L
sV\u70b9\u949e\u673a
p5138
L5137L
sV\u9648\u73c2
p5139
L5138L
sV\u592e\u7968
p5140
L5139L
sV\u5b58\u7ba1
p5141
L5140L
sV\u5c11\u589e
p5142
L5141L
sV\u6025\u9700\u8d44\u91d1
p5143
L5142L
sV\u82d7\u71d5
p5144
L5143L
sV\u79e6\u4e3d\u840d
p5145
L5144L
sV\u9879\u4fca\u6ce2
p5146
L5145L
sV\u53d7\u76ca\u6743
p5147
L5146L
sV\u4e0d\u589e
p5148
L5147L
sV\u591a\u589e
p5149
L5148L
sV\u653e\u8d37\u4eba
p5150
L5149L
sV\u77f3\u5b89
p5151
L5150L
sV\u5bf9\u9996
p5152
L5151L
sV\u5f20\u82e5\u658c
p5153
L5152L
sV\u8fd8\u6b3e\u6cd5
p5154
L5153L
sV\u5047\u94b1
p5155
L5154L
sV\u6570\u8f83
p5156
L5155L
sV\u516b\u4e94\u6298
p5157
L5156L
sV\u8377\u94f6
p5158
L5157L
sV\u4fe1\u7528\u8054\u793e
p5159
L5158L
sV\u9648\u677e\u5174
p5160
L5159L
sV\u6768\u51ef\u751f
p5161
L5160L
sV\u5fae\u964d
p5162
L5161L
sV\u98ce\u63a7
p5163
L5162L
sV\u5510\u66dc\u534e
p5164
L5163L
sV\u5929\u91cf
p5165
L5164L
sV\u975e\u606f
p5166
L5165L
sV\u9700\u627f\u62c5
p5167
L5166L
sV\u91d1\u8475\u82b1
p5168
L5167L
sV\u6253\u65b0
p5169
L5168L
sV\u4e09\u7b14
p5170
L5169L
sV\u82cf\u66fc\u4e3d
p5171
L5170L
sV\u897f\u5357\u8d22\u5927
p5172
L5171L
sV\u63fd\u50a8
p5173
L5172L
sV\u4fdd\u606f
p5174
L5173L
sV\u6b21\u540e
p5175
L5174L
sV\u91d1\u82f9\u82f9
p5176
L5175L
sV\u989c\u5251
p5177
L5176L
sV\u4e8e\u52c7
p5178
L5177L
sV\u6f58\u529f\u80dc
p5179
L5178L
sV\u5438\u50a8
p5180
L5179L
sV\u63fd\u5b58
p5181
L5180L
sV\u5f20\u5efa\u56fd
p5182
L5181L
sV\u7b2c\u56db\u5341\u4e09\u6761
p5183
L5182L
sV\u6234\u76f8\u9f99
p5184
L5183L
sV\u63d0\u8db3
p5185
L5184L
sV\u7eff\u978b
p5186
L5185L
sV\u8d22\u5546
p5187
L5186L
sV\u5148\u5b58
p5188
L5187L
sV\u8d39\u65f6\u95f4
p5189
L5188L
s.